(dp1
S'with-openmp'
p2
ccopy_reg
_reconstructor
p3
(cnargs
ArgBool
p4
c__builtin__
object
p5
NtRp6
(dp7
S'deprecated'
p8
I00
sS'value'
p9
I0
sS'isTemporary'
p10
I0
sS'help'
p11
S'Indicate if you wish to test for openmp'
p12
sS'key'
p13
S'with-openmp'
p14
sbsS'with-sowing-include'
p15
g3
(cnargs
ArgDirList
p16
g5
NtRp17
(dp18
S'mustExist'
p19
I1
sg10
I0
sg11
S'Indicate the directory of the sowing include files'
p20
sg13
S'with-sowing-include'
p21
sg8
I00
sbsS'CUDAOPTFLAGS'
p22
g3
(cnargs
Arg
p23
g5
NtRp24
(dp25
g8
I00
sg10
I00
sg11
S'Override the debugging/optimization flags for the CUDA compiler'
p26
sg13
S'CUDAOPTFLAGS'
p27
sbsS'with-libjpeg-include'
p28
g3
(g16
g5
NtRp29
(dp30
g19
I1
sg10
I0
sg11
S'Indicate the directory of the libjpeg include files'
p31
sg13
S'with-libjpeg-include'
p32
sg8
I00
sbsS'download-moab'
p33
g3
(cnargs
ArgDownload
p34
g5
NtRp35
(dp36
g8
I00
sg9
I0
sg10
I0
sg11
S'Download and install MOAB'
p37
sg13
S'download-moab'
p38
sbsS'with-chombo-pkg-config'
p39
g3
(g23
g5
NtRp40
(dp41
g8
I00
sg10
I00
sg11
S'Look for Chombo using pkg-config utility optional directory to look in'
p42
sg13
S'with-chombo-pkg-config'
p43
sbsS'with-alquimia-include'
p44
g3
(g16
g5
NtRp45
(dp46
g19
I1
sg10
I0
sg11
S'Indicate the directory of the alquimia include files'
p47
sg13
S'with-alquimia-include'
p48
sg8
I00
sbsS'with-info'
p49
g3
(g4
g5
NtRp50
(dp51
g8
I00
sg9
I1
sg10
I0
sg11
S'Activate PetscInfo() (i.e. -info)  code in PETSc'
p52
sg13
S'with-info'
p53
sbsS'with-single-library'
p54
g3
(g4
g5
NtRp55
(dp56
g8
I00
sg9
I1
sg10
I0
sg11
S'Put all PETSc code into the single -lpetsc library'
p57
sg13
S'with-single-library'
p58
sbsS'prefix'
p59
g3
(g23
g5
NtRp60
(dp61
g8
I00
sg9
S''
sg10
I00
sg11
S'Specifiy location to install PETSc (eg. /usr/local)'
p62
sg13
S'prefix'
p63
sbsS'with-cusp-include'
p64
g3
(g16
g5
NtRp65
(dp66
g19
I1
sg10
I0
sg11
S'Indicate the directory of the cusp include files'
p67
sg13
S'with-cusp-include'
p68
sg8
I00
sbsS'with-fiat'
p69
g3
(g4
g5
NtRp70
(dp71
g8
I00
sg9
I0
sg10
I0
sg11
S'Indicate if you wish to test for fiat'
p72
sg13
S'with-fiat'
p73
sbsS'with-environment-variables'
p74
g3
(g4
g5
NtRp75
(dp76
g8
I00
sg9
I0
sg10
I0
sg11
S'Use compiler variables found in environment'
p77
sg13
S'with-environment-variables'
p78
sbsS'with-p4est-debugging'
p79
g3
(g4
g5
NtRp80
(dp81
g8
I00
sg9
I0
sg10
I0
sg11
S"Use p4est's (sometimes computationally intensive) debugging"
p82
sg13
S'with-p4est-debugging'
p83
sbsS'with-glut-pkg-config'
p84
g3
(g23
g5
NtRp85
(dp86
g8
I00
sg10
I00
sg11
S'Look for glut using pkg-config utility optional directory to look in'
p87
sg13
S'with-glut-pkg-config'
p88
sbsS'with-giflib-include'
p89
g3
(g16
g5
NtRp90
(dp91
g19
I1
sg10
I0
sg11
S'Indicate the directory of the giflib include files'
p92
sg13
S'with-giflib-include'
p93
sg8
I00
sbsS'download-superlu_mt-commit'
p94
g3
(cnargs
ArgString
p95
g5
NtRp96
(dp97
g11
S'The commit id from a git repository to use for the buildSuperLU_MT'
p98
sg8
I00
sg9
I0
sg13
S'download-superlu_mt-commit'
p99
sS'regExp'
p100
Nsg10
I0
sbsS'download-hwloc-shared'
p101
g3
(g4
g5
NtRp102
(dp103
g8
I00
sg9
I0
sg10
I0
sg11
S'Install HWLOC with shared libraries'
p104
sg13
S'download-hwloc-shared'
p105
sbsS'with-superlu_mt'
p106
g3
(g4
g5
NtRp107
(dp108
g8
I00
sg9
I0
sg10
I0
sg11
S'Indicate if you wish to test for SuperLU_MT'
p109
sg13
S'with-superlu_mt'
p110
sbsS'with-p4est-lib'
p111
g3
(cnargs
ArgLibrary
p112
g5
NtRp113
(dp114
g19
I1
sg10
I0
sg11
S'Indicate the p4est libraries'
p115
sg13
S'with-p4est-lib'
p116
sg8
I00
sbsS'download-party'
p117
g3
(g34
g5
NtRp118
(dp119
g8
I00
sg9
I0
sg10
I0
sg11
S'Download and install PARTY'
p120
sg13
S'download-party'
p121
sbsS'with-dependencies'
p122
g3
(g4
g5
NtRp123
(dp124
g8
I00
sg9
I1
sg10
I0
sg11
S'Compile with -MMD or equivalent flag if possible'
p125
sg13
S'with-dependencies'
p126
sbsS'download-make-commit'
p127
g3
(g95
g5
NtRp128
(dp129
g11
S'The commit id from a git repository to use for the buildmake'
p130
sg8
I00
sg9
I0
sg13
S'download-make-commit'
p131
sg100
Nsg10
I0
sbsS'with-opencl-lib'
p132
g3
(g112
g5
NtRp133
(dp134
g19
I1
sg10
I0
sg11
S'Indicate the opencl libraries'
p135
sg13
S'with-opencl-lib'
p136
sg8
I00
sbsS'download-ml-configure-arguments'
p137
g3
(g95
g5
NtRp138
(dp139
g11
S'Additional GNU autoconf configure arguments for the buildml'
p140
sg8
I00
sg9
I0
sg13
S'download-ml-configure-arguments'
p141
sg100
Nsg10
I0
sbsS'download-xsdktrilinos'
p142
g3
(g34
g5
NtRp143
(dp144
g8
I00
sg9
I0
sg10
I0
sg11
S'Download and install xSDKTrilinos'
p145
sg13
S'download-xsdktrilinos'
p146
sbsS'with-precision'
p147
g3
(g23
g5
NtRp148
(dp149
g8
I00
sg9
S'double'
p150
sg10
I00
sg11
S'Specify numerical precision'
p151
sg13
S'with-precision'
p152
sbsS'download-mpi4py-commit'
p153
g3
(g95
g5
NtRp154
(dp155
g11
S'The commit id from a git repository to use for the buildmpi4py'
p156
sg8
I00
sg9
I0
sg13
S'download-mpi4py-commit'
p157
sg100
Nsg10
I0
sbsS'download-fiat-commit'
p158
g3
(g95
g5
NtRp159
(dp160
g11
S'The commit id from a git repository to use for the buildfiat'
p161
sg8
I00
sg9
I0
sg13
S'download-fiat-commit'
p162
sg100
Nsg10
I0
sbsS'with-blas-lapack-lib'
p163
g3
(g112
g5
NtRp164
(dp165
g19
I1
sg10
I0
sg11
S'Indicate the library containing BLAS and LAPACK'
p166
sg13
S'with-blas-lapack-lib'
p167
sg8
I00
sbsS'with-mstk-dir'
p168
g3
(cnargs
ArgDir
p169
g5
NtRp170
(dp171
g19
I1
sg10
I0
sg11
S'Indicate the root directory of the mstk installation'
p172
sg13
S'with-mstk-dir'
p173
sg8
I00
sbsS'search-dirs'
p174
g3
(g23
g5
NtRp175
(dp176
g8
I00
sg9
(lp177
S'/nas/users/u68659/unix'
p178
aS'/nas/users/u68659/unix/ladnet/LADnet/lib/petsc-3.7.2/bin/win32fe'
p179
asg10
I00
sg11
S'A list of directories used to search for executables'
p180
sg13
g174
sbsS'CUDAFLAGS'
p181
g3
(g23
g5
NtRp182
(dp183
g8
I00
sg10
I00
sg11
S'Specify the CUDA compiler options'
p184
sg13
S'CUDAFLAGS'
p185
sbsS'with-valgrind-include'
p186
g3
(g16
g5
NtRp187
(dp188
g19
I1
sg10
I0
sg11
S'Indicate the directory of the valgrind include files'
p189
sg13
S'with-valgrind-include'
p190
sg8
I00
sbsS'download-trilinos-shared'
p191
g3
(g4
g5
NtRp192
(dp193
g8
I00
sg9
I0
sg10
I0
sg11
S'Install TRILINOS with shared libraries'
p194
sg13
S'download-trilinos-shared'
p195
sbsS'with-libjpeg-lib'
p196
g3
(g112
g5
NtRp197
(dp198
g19
I1
sg10
I0
sg11
S'Indicate the libjpeg libraries'
p199
sg13
S'with-libjpeg-lib'
p200
sg8
I00
sbsS'download-netcdf-shared'
p201
g3
(g4
g5
NtRp202
(dp203
g8
I00
sg9
I0
sg10
I0
sg11
S'Install NETCDF with shared libraries'
p204
sg13
S'download-netcdf-shared'
p205
sbsS'with-libjpeg-dir'
p206
g3
(g169
g5
NtRp207
(dp208
g19
I1
sg10
I0
sg11
S'Indicate the root directory of the libjpeg installation'
p209
sg13
S'with-libjpeg-dir'
p210
sg8
I00
sbsS'with-proc-filesystem'
p211
g3
(g4
g5
NtRp212
(dp213
g8
I00
sg9
I1
sg10
I0
sg11
S'Use the /proc filesystem for system statistics'
p214
sg13
S'with-proc-filesystem'
p215
sbsS'download-mpich-shared'
p216
g3
(g4
g5
NtRp217
(dp218
g8
I00
sg9
I0
sg10
I0
sg11
S'Install MPICH with shared libraries'
p219
sg13
S'download-mpich-shared'
p220
sbsS'with-moab-include'
p221
g3
(g16
g5
NtRp222
(dp223
g19
I1
sg10
I0
sg11
S'Indicate the directory of the MOAB include files'
p224
sg13
S'with-moab-include'
p225
sg8
I00
sbsS'download-trilinos'
p226
g3
(g34
g5
NtRp227
(dp228
g8
I00
sg9
I0
sg10
I0
sg11
S'Download and install Trilinos'
p229
sg13
S'download-trilinos'
p230
sbsS'with-cuda-dir'
p231
g3
(g169
g5
NtRp232
(dp233
g19
I1
sg10
I0
sg11
S'Indicate the root directory of the cuda installation'
p234
sg13
S'with-cuda-dir'
p235
sg8
I00
sbsS'with-triangle'
p236
g3
(g4
g5
NtRp237
(dp238
g8
I00
sg9
I0
sg10
I0
sg11
S'Indicate if you wish to test for Triangle'
p239
sg13
S'with-triangle'
p240
sbsS'with-cuda'
p241
g3
(g4
g5
NtRp242
(dp243
g8
I00
sg9
I0
sg10
I0
sg11
S'Indicate if you wish to test for cuda'
p244
sg13
S'with-cuda'
p245
sbsS'ignoreCompileOutput'
p246
g3
(g4
g5
NtRp247
(dp248
g8
I00
sg9
I1
sg10
I0
sg11
S'Ignore compiler output'
p249
sg13
g246
sbsS'with-fortran-kernels'
p250
g3
(g4
g5
NtRp251
(dp252
g8
I00
sg9
I0
sg10
I0
sg11
S'Use Fortran for linear algebra kernels'
p253
sg13
S'with-fortran-kernels'
p254
sbsS'with-moab-pkg-config'
p255
g3
(g23
g5
NtRp256
(dp257
g8
I00
sg10
I00
sg11
S'Look for MOAB using pkg-config utility optional directory to look in'
p258
sg13
S'with-moab-pkg-config'
p259
sbsS'with-sundials'
p260
g3
(g4
g5
NtRp261
(dp262
g8
I00
sg9
I0
sg10
I0
sg11
S'Indicate if you wish to test for sundials'
p263
sg13
S'with-sundials'
p264
sbsS'download-unittestcpp'
p265
g3
(g34
g5
NtRp266
(dp267
g8
I00
sg9
I0
sg10
I0
sg11
S'Download and install unittestcpp'
p268
sg13
S'download-unittestcpp'
p269
sbsS'with-scientificpython-dir'
p270
g3
(g169
g5
NtRp271
(dp272
g19
I1
sg10
I0
sg11
S'Indicate the root directory of the scientificpython installation'
p273
sg13
S'with-scientificpython-dir'
p274
sg8
I00
sbsS'with-metis-include'
p275
g3
(g16
g5
NtRp276
(dp277
g19
I1
sg10
I0
sg11
S'Indicate the directory of the metis include files'
p278
sg13
S'with-metis-include'
p279
sg8
I00
sbsS'with-ssl-include'
p280
g3
(g16
g5
NtRp281
(dp282
g19
I1
sg10
I0
sg11
S'Indicate the directory of the ssl include files'
p283
sg13
S'with-ssl-include'
p284
sg8
I00
sbsS'download-giflib-commit'
p285
g3
(g95
g5
NtRp286
(dp287
g11
S'The commit id from a git repository to use for the buildgiflib'
p288
sg8
I00
sg9
I0
sg13
S'download-giflib-commit'
p289
sg100
Nsg10
I0
sbsS'with-superlu-include'
p290
g3
(g16
g5
NtRp291
(dp292
g19
I1
sg10
I0
sg11
S'Indicate the directory of the SuperLU include files'
p293
sg13
S'with-superlu-include'
p294
sg8
I00
sbsS'with-hypre-lib'
p295
g3
(g112
g5
NtRp296
(dp297
g19
I1
sg10
I0
sg11
S'Indicate the hypre libraries'
p298
sg13
S'with-hypre-lib'
p299
sg8
I00
sbsS'download-mstk-cmake-arguments'
p300
g3
(g95
g5
NtRp301
(dp302
g11
S'Additional CMake arguments for the buildmstk'
p303
sg8
I00
sg9
I0
sg13
S'download-mstk-cmake-arguments'
p304
sg100
Nsg10
I0
sbsS'with-cusp-dir'
p305
g3
(g169
g5
NtRp306
(dp307
g19
I1
sg10
I0
sg11
S'Indicate the root directory of the cusp installation'
p308
sg13
S'with-cusp-dir'
p309
sg8
I00
sbsS'CPP'
p310
g3
(g23
g5
NtRp311
(dp312
g8
I00
sg10
I00
sg11
S'Specify the C preprocessor'
p313
sg13
S'CPP'
p314
sbsS'with-gmp-dir'
p315
g3
(g169
g5
NtRp316
(dp317
g19
I1
sg10
I0
sg11
S'Indicate the root directory of the gmp installation'
p318
sg13
S'with-gmp-dir'
p319
sg8
I00
sbsS'with-xsdktrilinos-include'
p320
g3
(g16
g5
NtRp321
(dp322
g19
I1
sg10
I0
sg11
S'Indicate the directory of the xSDKTrilinos include files'
p323
sg13
S'with-xsdktrilinos-include'
p324
sg8
I00
sbsS'with-superlu_dist-pkg-config'
p325
g3
(g23
g5
NtRp326
(dp327
g8
I00
sg10
I00
sg11
S'Look for SuperLU_DIST using pkg-config utility optional directory to look in'
p328
sg13
S'with-superlu_dist-pkg-config'
p329
sbsS'with-ptscotch'
p330
g3
(g4
g5
NtRp331
(dp332
g8
I00
sg9
I0
sg10
I0
sg11
S'Indicate if you wish to test for PTScotch'
p333
sg13
S'with-ptscotch'
p334
sbsS'with-scalapack-include'
p335
g3
(g16
g5
NtRp336
(dp337
g19
I1
sg10
I0
sg11
S'Indicate the directory of the scalapack include files'
p338
sg13
S'with-scalapack-include'
p339
sg8
I00
sbsS'with-mstk-pkg-config'
p340
g3
(g23
g5
NtRp341
(dp342
g8
I00
sg10
I00
sg11
S'Look for mstk using pkg-config utility optional directory to look in'
p343
sg13
S'with-mstk-pkg-config'
p344
sbsS'with-trilinos-include'
p345
g3
(g16
g5
NtRp346
(dp347
g19
I1
sg10
I0
sg11
S'Indicate the directory of the Trilinos include files'
p348
sg13
S'with-trilinos-include'
p349
sg8
I00
sbsS'with-cgns-include'
p350
g3
(g16
g5
NtRp351
(dp352
g19
I1
sg10
I0
sg11
S'Indicate the directory of the cgns include files'
p353
sg13
S'with-cgns-include'
p354
sg8
I00
sbsS'download-p4est-commit'
p355
g3
(g95
g5
NtRp356
(dp357
g11
S'The commit id from a git repository to use for the buildp4est'
p358
sg8
I00
sg9
I0
sg13
S'download-p4est-commit'
p359
sg100
Nsg10
I0
sbsS'with-ctable'
p360
g3
(g4
g5
NtRp361
(dp362
g8
I00
sg9
I1
sg10
I0
sg11
S'Activate CTABLE hashing for certain search functions - to conserve memory'
p363
sg13
S'with-ctable'
p364
sbsS'with-opencl'
p365
g3
(g4
g5
NtRp366
(dp367
g8
I00
sg9
I0
sg10
I0
sg11
S'Indicate if you wish to test for opencl'
p368
sg13
S'with-opencl'
p369
sbsS'with-mumps-pkg-config'
p370
g3
(g23
g5
NtRp371
(dp372
g8
I00
sg10
I00
sg11
S'Look for MUMPS using pkg-config utility optional directory to look in'
p373
sg13
S'with-mumps-pkg-config'
p374
sbsS'with-chaco-lib'
p375
g3
(g112
g5
NtRp376
(dp377
g19
I1
sg10
I0
sg11
S'Indicate the Chaco libraries'
p378
sg13
S'with-chaco-lib'
p379
sg8
I00
sbsS'with-saws-lib'
p380
g3
(g112
g5
NtRp381
(dp382
g19
I1
sg10
I0
sg11
S'Indicate the saws libraries'
p383
sg13
S'with-saws-lib'
p384
sg8
I00
sbsS'with-ssl-dir'
p385
g3
(g169
g5
NtRp386
(dp387
g19
I1
sg10
I0
sg11
S'Indicate the root directory of the ssl installation'
p388
sg13
S'with-ssl-dir'
p389
sg8
I00
sbsS'with-saws-dir'
p390
g3
(g169
g5
NtRp391
(dp392
g19
I1
sg10
I0
sg11
S'Indicate the root directory of the saws installation'
p393
sg13
S'with-saws-dir'
p394
sg8
I00
sbsS'with-cusp-lib'
p395
g3
(g112
g5
NtRp396
(dp397
g19
I1
sg10
I0
sg11
S'Indicate the cusp libraries'
p398
sg13
S'with-cusp-lib'
p399
sg8
I00
sbsS'download-metis-commit'
p400
g3
(g95
g5
NtRp401
(dp402
g11
S'The commit id from a git repository to use for the buildmetis'
p403
sg8
I00
sg9
I0
sg13
S'download-metis-commit'
p404
sg100
Nsg10
I0
sbsS'with-x-include'
p405
g3
(g16
g5
NtRp406
(dp407
g19
I1
sg10
I0
sg11
S'Indicate the directory of the X include files'
p408
sg13
S'with-x-include'
p409
sg8
I00
sbsS'download-cmake-configure-arguments'
p410
g3
(g95
g5
NtRp411
(dp412
g11
S'Additional GNU autoconf configure arguments for the buildcmake'
p413
sg8
I00
sg9
I0
sg13
S'download-cmake-configure-arguments'
p414
sg100
Nsg10
I0
sbsS'with-opengl-include'
p415
g3
(g16
g5
NtRp416
(dp417
g19
I1
sg10
I0
sg11
S'Indicate the directory of the opengl include files'
p418
sg13
S'with-opengl-include'
p419
sg8
I00
sbsS'with-mumps-serial'
p420
g3
(g4
g5
NtRp421
(dp422
g8
I00
sg9
I0
sg10
I0
sg11
S'Use serial build of MUMPS'
p423
sg13
S'with-mumps-serial'
p424
sbsS'download-pflotran-shared'
p425
g3
(g4
g5
NtRp426
(dp427
g8
I00
sg9
I0
sg10
I0
sg11
S'Install PFLOTRAN with shared libraries'
p428
sg13
S'download-pflotran-shared'
p429
sbsS'ignoreLinkOutput'
p430
g3
(g4
g5
NtRp431
(dp432
g8
I00
sg9
I1
sg10
I0
sg11
S'Ignore linker output'
p433
sg13
g430
sbsS'with-openmp-include'
p434
g3
(g16
g5
NtRp435
(dp436
g19
I1
sg10
I0
sg11
S'Indicate the directory of the openmp include files'
p437
sg13
S'with-openmp-include'
p438
sg8
I00
sbsS'with-log'
p439
g3
(g4
g5
NtRp440
(dp441
g8
I00
sg9
I1
sg10
I0
sg11
S'Activate logging code in PETSc'
p442
sg13
S'with-log'
p443
sbsS'with-debugging'
p444
g3
(g4
g5
NtRp445
(dp446
g8
I00
sg9
I1
sg10
I0
sg11
S'Specify debugging version of libraries'
p447
sg13
S'with-debugging'
p448
sbsS'with-moab'
p449
g3
(g4
g5
NtRp450
(dp451
g8
I00
sg9
I0
sg10
I0
sg11
S'Indicate if you wish to test for MOAB'
p452
sg13
S'with-moab'
p453
sbsS'with-opencl-dir'
p454
g3
(g169
g5
NtRp455
(dp456
g19
I1
sg10
I0
sg11
S'Indicate the root directory of the opencl installation'
p457
sg13
S'with-opencl-dir'
p458
sg8
I00
sbsS'download-libjpeg-shared'
p459
g3
(g4
g5
NtRp460
(dp461
g8
I00
sg9
I0
sg10
I0
sg11
S'Install LIBJPEG with shared libraries'
p462
sg13
S'download-libjpeg-shared'
p463
sbsS'with-mstk-lib'
p464
g3
(g112
g5
NtRp465
(dp466
g19
I1
sg10
I0
sg11
S'Indicate the mstk libraries'
p467
sg13
S'with-mstk-lib'
p468
sg8
I00
sbsS'with-fortran-datatypes'
p469
g3
(g4
g5
NtRp470
(dp471
g8
I00
sg9
I0
sg10
I0
sg11
S'Declare PETSc objects in Fortran like type(Vec) instead of Vec'
p472
sg13
S'with-fortran-datatypes'
p473
sbsS'download-superlu_dist-gpu'
p474
g3
(g4
g5
NtRp475
(dp476
g8
I00
sg9
I0
sg10
I0
sg11
S'Install Superlu_DIST to use GPUs'
p477
sg13
S'download-superlu_dist-gpu'
p478
sbsS'download-xsdktrilinos-shared'
p479
g3
(g4
g5
NtRp480
(dp481
g8
I00
sg9
I0
sg10
I0
sg11
S'Install XSDKTRILINOS with shared libraries'
p482
sg13
S'download-xsdktrilinos-shared'
p483
sbsS'download-spai-commit'
p484
g3
(g95
g5
NtRp485
(dp486
g11
S'The commit id from a git repository to use for the buildspai'
p487
sg8
I00
sg9
I0
sg13
S'download-spai-commit'
p488
sg100
Nsg10
I0
sbsS'with-tchem'
p489
g3
(g4
g5
NtRp490
(dp491
g8
I00
sg9
I0
sg10
I0
sg11
S'Indicate if you wish to test for tchem'
p492
sg13
S'with-tchem'
p493
sbsS'with-matlab-dir'
p494
g3
(g169
g5
NtRp495
(dp496
g19
I1
sg10
I0
sg11
S'Specify the root directory of the Matlab installation'
p497
sg13
S'with-matlab-dir'
p498
sg8
I00
sbsS'download-fblaslapack-commit'
p499
g3
(g95
g5
NtRp500
(dp501
g11
S'The commit id from a git repository to use for the buildfblaslapack'
p502
sg8
I00
sg9
I0
sg13
S'download-fblaslapack-commit'
p503
sg100
Nsg10
I0
sbsS'with-file-create-pause'
p504
g3
(g4
g5
NtRp505
(dp506
g8
I00
sg9
I0
sg10
I0
sg11
S'Add 1 sec pause between config temp file delete/recreate'
p507
sg13
g504
sbsS'with-cmake-dir'
p508
g3
(g169
g5
NtRp509
(dp510
g19
I1
sg10
I0
sg11
S'Indicate the root directory of the cmake installation'
p511
sg13
S'with-cmake-dir'
p512
sg8
I00
sbsS'with-gmp-lib'
p513
g3
(g112
g5
NtRp514
(dp515
g19
I1
sg10
I0
sg11
S'Indicate the gmp libraries'
p516
sg13
S'with-gmp-lib'
p517
sg8
I00
sbsS'download-lgrind-commit'
p518
g3
(g95
g5
NtRp519
(dp520
g11
S'The commit id from a git repository to use for the buildlgrind'
p521
sg8
I00
sg9
I0
sg13
S'download-lgrind-commit'
p522
sg100
Nsg10
I0
sbsS'download-suitesparse-commit'
p523
g3
(g95
g5
NtRp524
(dp525
g11
S'The commit id from a git repository to use for the buildSuiteSparse'
p526
sg8
I00
sg9
I0
sg13
S'download-suitesparse-commit'
p527
sg100
Nsg10
I0
sbsS'FC'
p528
g3
(g23
g5
NtRp529
(dp530
g8
I00
sg10
I00
sg11
S'Specify the Fortran compiler'
p531
sg13
S'FC'
p532
sbsS'with-pflotran-dir'
p533
g3
(g169
g5
NtRp534
(dp535
g19
I1
sg10
I0
sg11
S'Indicate the root directory of the pflotran installation'
p536
sg13
S'with-pflotran-dir'
p537
sg8
I00
sbsS'with-saws-include'
p538
g3
(g16
g5
NtRp539
(dp540
g19
I1
sg10
I0
sg11
S'Indicate the directory of the saws include files'
p541
sg13
S'with-saws-include'
p542
sg8
I00
sbsS'LIBS'
p543
g3
(g23
g5
NtRp544
(dp545
g8
I00
sg10
I00
sg11
S'Specify extra libraries for all links'
p546
sg13
S'LIBS'
p547
sbsS'with-blas-lapack-suffix'
p548
g3
(g112
g5
NtRp549
(dp550
g19
I1
sg10
I0
sg11
S'Indicate a suffix for BLAS/LAPACK subroutine names.'
p551
sg13
S'with-blas-lapack-suffix'
p552
sg8
I00
sbsS'with-chaco'
p553
g3
(g4
g5
NtRp554
(dp555
g8
I00
sg9
I0
sg10
I0
sg11
S'Indicate if you wish to test for Chaco'
p556
sg13
S'with-chaco'
p557
sbsS'download-scientificpython-commit'
p558
g3
(g95
g5
NtRp559
(dp560
g11
S'The commit id from a git repository to use for the buildscientificpython'
p561
sg8
I00
sg9
I0
sg13
S'download-scientificpython-commit'
p562
sg100
Nsg10
I0
sbsS'download-lgrind'
p563
g3
(g34
g5
NtRp564
(dp565
g8
I00
sg9
I0
sg10
I0
sg11
S'Download and install lgrind'
p566
sg13
S'download-lgrind'
p567
sbsS'with-zoltan'
p568
g3
(g4
g5
NtRp569
(dp570
g8
I00
sg9
I0
sg10
I0
sg11
S'Indicate if you wish to test for Zoltan'
p571
sg13
S'with-zoltan'
p572
sbsS'with-mumps-dir'
p573
g3
(g169
g5
NtRp574
(dp575
g19
I1
sg10
I0
sg11
S'Indicate the root directory of the MUMPS installation'
p576
sg13
S'with-mumps-dir'
p577
sg8
I00
sbsS'with-default-arch'
p578
g3
(g4
g5
NtRp579
(dp580
g8
I00
sg9
I1
sg10
I0
sg11
S'Allow using the last configured arch without setting PETSC_ARCH'
p581
sg13
S'with-default-arch'
p582
sbsS'download-c2html'
p583
g3
(g34
g5
NtRp584
(dp585
g8
I00
sg9
I0
sg10
I0
sg11
S'Download and install c2html'
p586
sg13
S'download-c2html'
p587
sbsS'download-mpe'
p588
g3
(g34
g5
NtRp589
(dp590
g8
I00
sg9
I0
sg10
I0
sg11
S'Download and install mpe'
p591
sg13
S'download-mpe'
p592
sbsS'with-alquimia-pkg-config'
p593
g3
(g23
g5
NtRp594
(dp595
g8
I00
sg10
I00
sg11
S'Look for alquimia using pkg-config utility optional directory to look in'
p596
sg13
S'with-alquimia-pkg-config'
p597
sbsS'with-exodusii-dir'
p598
g3
(g169
g5
NtRp599
(dp600
g19
I1
sg10
I0
sg11
S'Indicate the root directory of the exodusii installation'
p601
sg13
S'with-exodusii-dir'
p602
sg8
I00
sbsS'download-hypre'
p603
g3
(g34
g5
NtRp604
(dp605
g8
I00
sg9
I0
sg10
I0
sg11
S'Download and install hypre'
p606
sg13
S'download-hypre'
p607
sbsS'with-chaco-include'
p608
g3
(g16
g5
NtRp609
(dp610
g19
I1
sg10
I0
sg11
S'Indicate the directory of the Chaco include files'
p611
sg13
S'with-chaco-include'
p612
sg8
I00
sbsS'download-f2cblaslapack-commit'
p613
g3
(g95
g5
NtRp614
(dp615
g11
S'The commit id from a git repository to use for the buildf2cblaslapack'
p616
sg8
I00
sg9
I0
sg13
S'download-f2cblaslapack-commit'
p617
sg100
Nsg10
I0
sbsS'download-superlu_dist-cmake-arguments'
p618
g3
(g95
g5
NtRp619
(dp620
g11
S'Additional CMake arguments for the buildSuperLU_DIST'
p621
sg8
I00
sg9
I0
sg13
S'download-superlu_dist-cmake-arguments'
p622
sg100
Nsg10
I0
sbsS'download-libpng-shared'
p623
g3
(g4
g5
NtRp624
(dp625
g8
I00
sg9
I0
sg10
I0
sg11
S'Install LIBPNG with shared libraries'
p626
sg13
S'download-libpng-shared'
p627
sbsS'with-c2html'
p628
g3
(g4
g5
NtRp629
(dp630
g8
I00
sg9
I1
sg10
I0
sg11
S'Indicate if you wish to test for c2html'
p631
sg13
S'with-c2html'
p632
sbsS'download-scalapack'
p633
g3
(g34
g5
NtRp634
(dp635
g8
I00
sg9
I0
sg10
I0
sg11
S'Download and install scalapack'
p636
sg13
S'download-scalapack'
p637
sbsS'doCleanup'
p638
g3
(g4
g5
NtRp639
(dp640
g8
I00
sg9
I1
sg10
I0
sg11
S'Delete any configure generated files (turn off for debugging)'
p641
sg13
g638
sbsS'with-mkl_cpardiso-include'
p642
g3
(g16
g5
NtRp643
(dp644
g19
I1
sg10
I0
sg11
S'Indicate the directory of the mkl_cpardiso include files'
p645
sg13
S'with-mkl_cpardiso-include'
p646
sg8
I00
sbsS'with-pami-include'
p647
g3
(g16
g5
NtRp648
(dp649
g19
I1
sg10
I0
sg11
S'Indicate the directory of the pami include files'
p650
sg13
S'with-pami-include'
p651
sg8
I00
sbsS'with-hypre-dir'
p652
g3
(g169
g5
NtRp653
(dp654
g19
I1
sg10
I0
sg11
S'Indicate the root directory of the hypre installation'
p655
sg13
S'with-hypre-dir'
p656
sg8
I00
sbsS'with-hwloc-include'
p657
g3
(g16
g5
NtRp658
(dp659
g19
I1
sg10
I0
sg11
S'Indicate the directory of the hwloc include files'
p660
sg13
S'with-hwloc-include'
p661
sg8
I00
sbsS'with-triangle-pkg-config'
p662
g3
(g23
g5
NtRp663
(dp664
g8
I00
sg10
I00
sg11
S'Look for Triangle using pkg-config utility optional directory to look in'
p665
sg13
S'with-triangle-pkg-config'
p666
sbsS'known-level1-dcache-assoc'
p667
g3
(cnargs
ArgInt
p668
g5
NtRp669
(dp670
g11
S'Associativity of the Level 1 data cache, 0 for full associative'
p671
sS'min'
p672
I0
sS'max'
p673
I2147483647
sg13
S'known-level1-dcache-assoc'
p674
sg8
I00
sg10
I0
sbsS'with-revolve-lib'
p675
g3
(g112
g5
NtRp676
(dp677
g19
I1
sg10
I0
sg11
S'Indicate the revolve libraries'
p678
sg13
S'with-revolve-lib'
p679
sg8
I00
sbsS'with-matlab-engine-lib'
p680
g3
(g112
g5
NtRp681
(dp682
g19
I1
sg10
I0
sg11
S'Indicate the MatlabEngine libraries'
p683
sg13
S'with-matlab-engine-lib'
p684
sg8
I00
sbsS'with-alquimia-dir'
p685
g3
(g169
g5
NtRp686
(dp687
g19
I1
sg10
I0
sg11
S'Indicate the root directory of the alquimia installation'
p688
sg13
S'with-alquimia-dir'
p689
sg8
I00
sbsS'with-concurrencykit-lib'
p690
g3
(g112
g5
NtRp691
(dp692
g19
I1
sg10
I0
sg11
S'Indicate the concurrencykit libraries'
p693
sg13
S'with-concurrencykit-lib'
p694
sg8
I00
sbsS'with-boost-lib'
p695
g3
(g112
g5
NtRp696
(dp697
g19
I1
sg10
I0
sg11
S'Indicate the boost libraries'
p698
sg13
S'with-boost-lib'
p699
sg8
I00
sbsS'with-alquimia-lib'
p700
g3
(g112
g5
NtRp701
(dp702
g19
I1
sg10
I0
sg11
S'Indicate the alquimia libraries'
p703
sg13
S'with-alquimia-lib'
p704
sg8
I00
sbsS'download-scalapack-commit'
p705
g3
(g95
g5
NtRp706
(dp707
g11
S'The commit id from a git repository to use for the buildscalapack'
p708
sg8
I00
sg9
I0
sg13
S'download-scalapack-commit'
p709
sg100
Nsg10
I0
sbsS'download-giflib'
p710
g3
(g34
g5
NtRp711
(dp712
g8
I00
sg9
I0
sg10
I0
sg11
S'Download and install giflib'
p713
sg13
S'download-giflib'
p714
sbsS'with-mstk-include'
p715
g3
(g16
g5
NtRp716
(dp717
g19
I1
sg10
I0
sg11
S'Indicate the directory of the mstk include files'
p718
sg13
S'with-mstk-include'
p719
sg8
I00
sbsS'download-p4est'
p720
g3
(g34
g5
NtRp721
(dp722
g8
I00
sg9
I0
sg10
I0
sg11
S'Download and install p4est'
p723
sg13
S'download-p4est'
p724
sbsS'with-chombo-lib'
p725
g3
(g112
g5
NtRp726
(dp727
g19
I1
sg10
I0
sg11
S'Indicate the Chombo libraries'
p728
sg13
S'with-chombo-lib'
p729
sg8
I00
sbsS'with-superlu_dist-include'
p730
g3
(g16
g5
NtRp731
(dp732
g19
I1
sg10
I0
sg11
S'Indicate the directory of the SuperLU_DIST include files'
p733
sg13
S'with-superlu_dist-include'
p734
sg8
I00
sbsS'download-ml'
p735
g3
(g34
g5
NtRp736
(dp737
g8
I00
sg9
I0
sg10
I0
sg11
S'Download and install ml'
p738
sg13
S'download-ml'
p739
sbsS'with-opengles-pkg-config'
p740
g3
(g23
g5
NtRp741
(dp742
g8
I00
sg10
I00
sg11
S'Look for opengles using pkg-config utility optional directory to look in'
p743
sg13
S'with-opengles-pkg-config'
p744
sbsS'with-exodusii-lib'
p745
g3
(g112
g5
NtRp746
(dp747
g19
I1
sg10
I0
sg11
S'Indicate the exodusii libraries'
p748
sg13
S'with-exodusii-lib'
p749
sg8
I00
sbsS'download-mstk'
p750
g3
(g34
g5
NtRp751
(dp752
g8
I00
sg9
I0
sg10
I0
sg11
S'Download and install mstk'
p753
sg13
S'download-mstk'
p754
sbsS'download-sowing-cxx'
p755
g3
(g23
g5
NtRp756
(dp757
g8
I00
sg10
I00
sg11
S'CXX compiler for sowing configure'
p758
sg13
S'download-sowing-cxx'
p759
sbsS'with-sowing-pkg-config'
p760
g3
(g23
g5
NtRp761
(dp762
g8
I00
sg10
I00
sg11
S'Look for sowing using pkg-config utility optional directory to look in'
p763
sg13
S'with-sowing-pkg-config'
p764
sbsS'with-pastix-include'
p765
g3
(g16
g5
NtRp766
(dp767
g19
I1
sg10
I0
sg11
S'Indicate the directory of the PaStiX include files'
p768
sg13
S'with-pastix-include'
p769
sg8
I00
sbsS'download-tchem-commit'
p770
g3
(g95
g5
NtRp771
(dp772
g11
S'The commit id from a git repository to use for the buildtchem'
p773
sg8
I00
sg9
I0
sg13
S'download-tchem-commit'
p774
sg100
Nsg10
I0
sbsS'download-petsc4py-commit'
p775
g3
(g95
g5
NtRp776
(dp777
g11
S'The commit id from a git repository to use for the buildpetsc4py'
p778
sg8
I00
sg9
I0
sg13
S'download-petsc4py-commit'
p779
sg100
Nsg10
I0
sbsS'with-moab-dir'
p780
g3
(g169
g5
NtRp781
(dp782
g19
I1
sg10
I0
sg11
S'Indicate the root directory of the MOAB installation'
p783
sg13
S'with-moab-dir'
p784
sg8
I00
sbsS'configModules'
p785
g3
(g23
g5
NtRp786
(dp787
g8
I00
sg9
(lp788
sg10
I00
sg11
S'A list of Python modules with a Configure class'
p789
sg13
S'configModules'
p790
sbsS'download-cusp-commit'
p791
g3
(g95
g5
NtRp792
(dp793
g11
S'The commit id from a git repository to use for the buildcusp'
p794
sg8
I00
sg9
I0
sg13
S'download-cusp-commit'
p795
sg100
Nsg10
I0
sbsS'with-moab-lib'
p796
g3
(g112
g5
NtRp797
(dp798
g19
I1
sg10
I0
sg11
S'Indicate the MOAB libraries'
p799
sg13
S'with-moab-lib'
p800
sg8
I00
sbsS'with-pthread'
p801
g3
(g4
g5
NtRp802
(dp803
g8
I00
sg9
I1
sg10
I0
sg11
S'Indicate if you wish to test for pthread'
p804
sg13
S'with-pthread'
p805
sbsS'with-glut-dir'
p806
g3
(g169
g5
NtRp807
(dp808
g19
I1
sg10
I0
sg11
S'Indicate the root directory of the glut installation'
p809
sg13
S'with-glut-dir'
p810
sg8
I00
sbsS'download-mpich'
p811
g3
(g34
g5
NtRp812
(dp813
g8
I00
sg9
I0
sg10
I0
sg11
S'Download and install MPICH'
p814
sg13
S'download-mpich'
p815
sbsS'LDFLAGS'
p816
g3
(g23
g5
NtRp817
(dp818
g8
I00
sg9
S''
sg10
I00
sg11
S'Specify the linker options'
p819
sg13
S'LDFLAGS'
p820
sbsS'with-sowing-dir'
p821
g3
(g169
g5
NtRp822
(dp823
g19
I1
sg10
I0
sg11
S'Indicate the root directory of the sowing installation'
p824
sg13
S'with-sowing-dir'
p825
sg8
I00
sbsS'with-opengl'
p826
g3
(g4
g5
NtRp827
(dp828
g8
I00
sg9
I0
sg10
I0
sg11
S'Indicate if you wish to test for opengl'
p829
sg13
S'with-opengl'
p830
sbsS'with-pragmatic'
p831
g3
(g4
g5
NtRp832
(dp833
g8
I00
sg9
I0
sg10
I0
sg11
S'Indicate if you wish to test for pragmatic'
p834
sg13
S'with-pragmatic'
p835
sbsS'with-pragmatic-pkg-config'
p836
g3
(g23
g5
NtRp837
(dp838
g8
I00
sg10
I00
sg11
S'Look for pragmatic using pkg-config utility optional directory to look in'
p839
sg13
S'with-pragmatic-pkg-config'
p840
sbsS'with-superlu_dist-lib'
p841
g3
(g112
g5
NtRp842
(dp843
g19
I1
sg10
I0
sg11
S'Indicate the SuperLU_DIST libraries'
p844
sg13
S'with-superlu_dist-lib'
p845
sg8
I00
sbsS'download-zoltan-commit'
p846
g3
(g95
g5
NtRp847
(dp848
g11
S'The commit id from a git repository to use for the buildZoltan'
p849
sg8
I00
sg9
I0
sg13
S'download-zoltan-commit'
p850
sg100
Nsg10
I0
sbsS'with-libtoolize'
p851
g3
(g23
g5
NtRp852
(dp853
g8
I00
sg9
S'libtoolize'
p854
sg10
I00
sg11
S'Specify libtoolize'
p855
sg13
S'with-libtoolize'
p856
sbsS'download-netcdf-configure-arguments'
p857
g3
(g95
g5
NtRp858
(dp859
g11
S'Additional GNU autoconf configure arguments for the buildnetcdf'
p860
sg8
I00
sg9
I0
sg13
S'download-netcdf-configure-arguments'
p861
sg100
Nsg10
I0
sbsS'with-pflotran-lib'
p862
g3
(g112
g5
NtRp863
(dp864
g19
I1
sg10
I0
sg11
S'Indicate the pflotran libraries'
p865
sg13
S'with-pflotran-lib'
p866
sg8
I00
sbsS'with-pami-pkg-config'
p867
g3
(g23
g5
NtRp868
(dp869
g8
I00
sg10
I00
sg11
S'Look for pami using pkg-config utility optional directory to look in'
p870
sg13
S'with-pami-pkg-config'
p871
sbsS'download-libpng-commit'
p872
g3
(g95
g5
NtRp873
(dp874
g11
S'The commit id from a git repository to use for the buildlibpng'
p875
sg8
I00
sg9
I0
sg13
S'download-libpng-commit'
p876
sg100
Nsg10
I0
sbsS'with-scientificpython-pkg-config'
p877
g3
(g23
g5
NtRp878
(dp879
g8
I00
sg10
I00
sg11
S'Look for scientificpython using pkg-config utility optional directory to look in'
p880
sg13
S'with-scientificpython-pkg-config'
p881
sbsS'download-revolve'
p882
g3
(g34
g5
NtRp883
(dp884
g8
I00
sg9
I0
sg10
I0
sg11
S'Download and install revolve'
p885
sg13
S'download-revolve'
p886
sbsS'download-ptscotch-commit'
p887
g3
(g95
g5
NtRp888
(dp889
g11
S'The commit id from a git repository to use for the buildPTScotch'
p890
sg8
I00
sg9
I0
sg13
S'download-ptscotch-commit'
p891
sg100
Nsg10
I0
sbsS'with-saws-pkg-config'
p892
g3
(g23
g5
NtRp893
(dp894
g8
I00
sg10
I00
sg11
S'Look for saws using pkg-config utility optional directory to look in'
p895
sg13
S'with-saws-pkg-config'
p896
sbsS'download-concurrencykit'
p897
g3
(g34
g5
NtRp898
(dp899
g8
I00
sg9
I0
sg10
I0
sg11
S'Download and install concurrencykit'
p900
sg13
S'download-concurrencykit'
p901
sbsS'with-ssl-pkg-config'
p902
g3
(g23
g5
NtRp903
(dp904
g8
I00
sg10
I00
sg11
S'Look for ssl using pkg-config utility optional directory to look in'
p905
sg13
S'with-ssl-pkg-config'
p906
sbsS'with-sundials-include'
p907
g3
(g16
g5
NtRp908
(dp909
g19
I1
sg10
I0
sg11
S'Indicate the directory of the sundials include files'
p910
sg13
S'with-sundials-include'
p911
sg8
I00
sbsS'with-mumps-lib'
p912
g3
(g112
g5
NtRp913
(dp914
g19
I1
sg10
I0
sg11
S'Indicate the MUMPS libraries'
p915
sg13
S'with-mumps-lib'
p916
sg8
I00
sbsS'known-64-bit-blas-indices'
p917
g3
(g4
g5
NtRp918
(dp919
g8
I00
sg9
I0
sg10
I0
sg11
S'Indicate if using 64 bit integer BLAS'
p920
sg13
S'known-64-bit-blas-indices'
p921
sbsS'download-c2html-cc'
p922
g3
(g23
g5
NtRp923
(dp924
g8
I00
sg10
I00
sg11
S'C compiler for c2html'
p925
sg13
S'download-c2html-cc'
p926
sbsS'with-fortran-interfaces'
p927
g3
(g4
g5
NtRp928
(dp929
g8
I00
sg9
I0
sg10
I0
sg11
S'Generate Fortran interface definitions for PETSc functions'
p930
sg13
S'with-fortran-interfaces'
p931
sbsS'download-triangle-commit'
p932
g3
(g95
g5
NtRp933
(dp934
g11
S'The commit id from a git repository to use for the buildTriangle'
p935
sg8
I00
sg9
I0
sg13
S'download-triangle-commit'
p936
sg100
Nsg10
I0
sbsS'with-giflib-dir'
p937
g3
(g169
g5
NtRp938
(dp939
g19
I1
sg10
I0
sg11
S'Indicate the root directory of the giflib installation'
p940
sg13
S'with-giflib-dir'
p941
sg8
I00
sbsS'with-cc'
p942
g3
(g23
g5
NtRp943
(dp944
g8
I00
sg10
I00
sg11
S'Specify the C compiler'
p945
sg13
S'with-cc'
p946
sbsS'with-party'
p947
g3
(g4
g5
NtRp948
(dp949
g8
I00
sg9
I0
sg10
I0
sg11
S'Indicate if you wish to test for PARTY'
p950
sg13
S'with-party'
p951
sbsS'with-openmp-pkg-config'
p952
g3
(g23
g5
NtRp953
(dp954
g8
I00
sg10
I00
sg11
S'Look for openmp using pkg-config utility optional directory to look in'
p955
sg13
S'with-openmp-pkg-config'
p956
sbsS'with-visibility'
p957
g3
(g4
g5
NtRp958
(dp959
g8
I00
sg9
I1
sg10
I0
sg11
S'Use compiler visibility flags to limit symbol visibility'
p960
sg13
S'with-visibility'
p961
sbsS'download-amanzi'
p962
g3
(g34
g5
NtRp963
(dp964
g8
I00
sg9
I0
sg10
I0
sg11
S'Download and install amanzi'
p965
sg13
S'download-amanzi'
p966
sbsS'download-fftw-configure-arguments'
p967
g3
(g95
g5
NtRp968
(dp969
g11
S'Additional GNU autoconf configure arguments for the buildfftw'
p970
sg8
I00
sg9
I0
sg13
S'download-fftw-configure-arguments'
p971
sg100
Nsg10
I0
sbsS'download-hdf5-shared'
p972
g3
(g4
g5
NtRp973
(dp974
g8
I00
sg9
I0
sg10
I0
sg11
S'Install HDF5 with shared libraries'
p975
sg13
S'download-hdf5-shared'
p976
sbsS'with-party-include'
p977
g3
(g16
g5
NtRp978
(dp979
g19
I1
sg10
I0
sg11
S'Indicate the directory of the PARTY include files'
p980
sg13
S'with-party-include'
p981
sg8
I00
sbsS'with-git'
p982
g3
(g23
g5
NtRp983
(dp984
g8
I00
sg9
S'git'
p985
sg10
I00
sg11
S'Specify the Git executable'
p986
sg13
S'with-git'
p987
sbsS'with-papi-dir'
p988
g3
(g169
g5
NtRp989
(dp990
g19
I1
sg10
I0
sg11
S'Indicate the root directory of the papi installation'
p991
sg13
S'with-papi-dir'
p992
sg8
I00
sbsS'with-sundials-pkg-config'
p993
g3
(g23
g5
NtRp994
(dp995
g8
I00
sg10
I00
sg11
S'Look for sundials using pkg-config utility optional directory to look in'
p996
sg13
S'with-sundials-pkg-config'
p997
sbsS'with-lgrind-pkg-config'
p998
g3
(g23
g5
NtRp999
(dp1000
g8
I00
sg10
I00
sg11
S'Look for lgrind using pkg-config utility optional directory to look in'
p1001
sg13
S'with-lgrind-pkg-config'
p1002
sbsS'with-ml-pkg-config'
p1003
g3
(g23
g5
NtRp1004
(dp1005
g8
I00
sg10
I00
sg11
S'Look for ml using pkg-config utility optional directory to look in'
p1006
sg13
S'with-ml-pkg-config'
p1007
sbsS'with-hypre'
p1008
g3
(g4
g5
NtRp1009
(dp1010
g8
I00
sg9
I0
sg10
I0
sg11
S'Indicate if you wish to test for hypre'
p1011
sg13
S'with-hypre'
p1012
sbsS'download-mpfr-commit'
p1013
g3
(g95
g5
NtRp1014
(dp1015
g11
S'The commit id from a git repository to use for the buildmpfr'
p1016
sg8
I00
sg9
I0
sg13
S'download-mpfr-commit'
p1017
sg100
Nsg10
I0
sbsS'with-parmetis'
p1018
g3
(g4
g5
NtRp1019
(dp1020
g8
I00
sg9
I0
sg10
I0
sg11
S'Indicate if you wish to test for parmetis'
p1021
sg13
S'with-parmetis'
p1022
sbsS'with-superlu_dist'
p1023
g3
(g4
g5
NtRp1024
(dp1025
g8
I00
sg9
I0
sg10
I0
sg11
S'Indicate if you wish to test for SuperLU_DIST'
p1026
sg13
S'with-superlu_dist'
p1027
sbsS'with-pthread-include'
p1028
g3
(g16
g5
NtRp1029
(dp1030
g19
I1
sg10
I0
sg11
S'Indicate the directory of the pthread include files'
p1031
sg13
S'with-pthread-include'
p1032
sg8
I00
sbsS'download-pflotran-configure-arguments'
p1033
g3
(g95
g5
NtRp1034
(dp1035
g11
S'Additional GNU autoconf configure arguments for the buildpflotran'
p1036
sg8
I00
sg9
I0
sg13
S'download-pflotran-configure-arguments'
p1037
sg100
Nsg10
I0
sbsS'with-hwloc'
p1038
g3
(g4
g5
NtRp1039
(dp1040
g8
I00
sg9
I1
sg10
I0
sg11
S'Indicate if you wish to test for hwloc'
p1041
sg13
S'with-hwloc'
p1042
sbsS'with-cmake-include'
p1043
g3
(g16
g5
NtRp1044
(dp1045
g19
I1
sg10
I0
sg11
S'Indicate the directory of the cmake include files'
p1046
sg13
S'with-cmake-include'
p1047
sg8
I00
sbsS'with-serialize-functions'
p1048
g3
(g4
g5
NtRp1049
(dp1050
g8
I00
sg9
I0
sg10
I0
sg11
S'Allows function pointers to be serialized to binary files with string representations'
p1051
sg13
S'with-serialize-functions'
p1052
sbsS'with-netcdf-pkg-config'
p1053
g3
(g23
g5
NtRp1054
(dp1055
g8
I00
sg10
I00
sg11
S'Look for netcdf using pkg-config utility optional directory to look in'
p1056
sg13
S'with-netcdf-pkg-config'
p1057
sbsS'with-ptscotch-dir'
p1058
g3
(g169
g5
NtRp1059
(dp1060
g19
I1
sg10
I0
sg11
S'Indicate the root directory of the PTScotch installation'
p1061
sg13
S'with-ptscotch-dir'
p1062
sg8
I00
sbsS'with-clib-autodetect'
p1063
g3
(g4
g5
NtRp1064
(dp1065
g8
I00
sg9
I1
sg10
I0
sg11
S'Autodetect C compiler libraries'
p1066
sg13
S'with-clib-autodetect'
p1067
sbsS'with-lgrind-lib'
p1068
g3
(g112
g5
NtRp1069
(dp1070
g19
I1
sg10
I0
sg11
S'Indicate the lgrind libraries'
p1071
sg13
S'with-lgrind-lib'
p1072
sg8
I00
sbsS'FOPTFLAGS'
p1073
g3
(g23
g5
NtRp1074
(dp1075
g8
I00
sg10
I00
sg11
S'Override the debugging/optimization flags for the Fortran compiler'
p1076
sg13
S'FOPTFLAGS'
p1077
sbsS'with-superlu_mt-dir'
p1078
g3
(g169
g5
NtRp1079
(dp1080
g19
I1
sg10
I0
sg11
S'Indicate the root directory of the SuperLU_MT installation'
p1081
sg13
S'with-superlu_mt-dir'
p1082
sg8
I00
sbsS'with-matlab-engine-dir'
p1083
g3
(g169
g5
NtRp1084
(dp1085
g19
I1
sg10
I0
sg11
S'Indicate the root directory of the MatlabEngine installation'
p1086
sg13
S'with-matlab-engine-dir'
p1087
sg8
I00
sbsS'CXX_LINKER_FLAGS'
p1088
g3
(g23
g5
NtRp1089
(dp1090
g8
I00
sg9
(lp1091
sg10
I00
sg11
S'Specify the C++ linker flags'
p1092
sg13
S'CXX_LINKER_FLAGS'
p1093
sbsS'with-giflib-lib'
p1094
g3
(g112
g5
NtRp1095
(dp1096
g19
I1
sg10
I0
sg11
S'Indicate the giflib libraries'
p1097
sg13
S'with-giflib-lib'
p1098
sg8
I00
sbsS'with-is-color-value-type'
p1099
g3
(g95
g5
NtRp1100
(dp1101
g11
S'char, short can store 256, 65536 colors'
p1102
sg8
I00
sg9
S'short'
p1103
sg13
S'with-is-color-value-type'
p1104
sg100
Nsg10
I0
sbsS'CXXFLAGS'
p1105
g3
(g23
g5
NtRp1106
(dp1107
g8
I00
sg10
I00
sg11
S'Specify the C++ compiler options, also passed to linker'
p1108
sg13
S'CXXFLAGS'
p1109
sbsS'download-numpy-shared'
p1110
g3
(g4
g5
NtRp1111
(dp1112
g8
I00
sg9
I0
sg10
I0
sg11
S'Install NUMPY with shared libraries'
p1113
sg13
S'download-numpy-shared'
p1114
sbsS'download-pragmatic-shared'
p1115
g3
(g4
g5
NtRp1116
(dp1117
g8
I00
sg9
I0
sg10
I0
sg11
S'Install PRAGMATIC with shared libraries'
p1118
sg13
S'download-pragmatic-shared'
p1119
sbsS'with-clean'
p1120
g3
(g4
g5
NtRp1121
(dp1122
g8
I00
sg9
I0
sg10
I0
sg11
S'Delete prior build files including externalpackages'
p1123
sg13
S'with-clean'
p1124
sbsS'CXXOPTFLAGS'
p1125
g3
(g23
g5
NtRp1126
(dp1127
g8
I00
sg10
I00
sg11
S'Override the debugging/optimization flags for the C++ compiler'
p1128
sg13
S'CXXOPTFLAGS'
p1129
sbsS'with-chombo-include'
p1130
g3
(g16
g5
NtRp1131
(dp1132
g19
I1
sg10
I0
sg11
S'Indicate the directory of the Chombo include files'
p1133
sg13
S'with-chombo-include'
p1134
sg8
I00
sbsS'with-scalar-type'
p1135
g3
(g23
g5
NtRp1136
(dp1137
g8
I00
sg9
S'real'
p1138
sg10
I00
sg11
S'Specify real or complex numbers'
p1139
sg13
S'with-scalar-type'
p1140
sbsS'with-zoltan-lib'
p1141
g3
(g112
g5
NtRp1142
(dp1143
g19
I1
sg10
I0
sg11
S'Indicate the Zoltan libraries'
p1144
sg13
S'with-zoltan-lib'
p1145
sg8
I00
sbsS'with-suitesparse'
p1146
g3
(g4
g5
NtRp1147
(dp1148
g8
I00
sg9
I0
sg10
I0
sg11
S'Indicate if you wish to test for SuiteSparse'
p1149
sg13
S'with-suitesparse'
p1150
sbsS'with-chombo-dir'
p1151
g3
(g169
g5
NtRp1152
(dp1153
g19
I1
sg10
I0
sg11
S'Indicate the root directory of the Chombo installation'
p1154
sg13
S'with-chombo-dir'
p1155
sg8
I00
sbsS'with-exodusii-include'
p1156
g3
(g16
g5
NtRp1157
(dp1158
g19
I1
sg10
I0
sg11
S'Indicate the directory of the exodusii include files'
p1159
sg13
S'with-exodusii-include'
p1160
sg8
I00
sbsS'download-saws-configure-arguments'
p1161
g3
(g95
g5
NtRp1162
(dp1163
g11
S'Additional GNU autoconf configure arguments for the buildsaws'
p1164
sg8
I00
sg9
I0
sg13
S'download-saws-configure-arguments'
p1165
sg100
Nsg10
I0
sbsS'with-unittestcpp-include'
p1166
g3
(g16
g5
NtRp1167
(dp1168
g19
I1
sg10
I0
sg11
S'Indicate the directory of the unittestcpp include files'
p1169
sg13
S'with-unittestcpp-include'
p1170
sg8
I00
sbsS'download-make-configure-arguments'
p1171
g3
(g95
g5
NtRp1172
(dp1173
g11
S'Additional GNU autoconf configure arguments for the buildmake'
p1174
sg8
I00
sg9
I0
sg13
S'download-make-configure-arguments'
p1175
sg100
Nsg10
I0
sbsS'with-superlu_dist-dir'
p1176
g3
(g169
g5
NtRp1177
(dp1178
g19
I1
sg10
I0
sg11
S'Indicate the root directory of the SuperLU_DIST installation'
p1179
sg13
S'with-superlu_dist-dir'
p1180
sg8
I00
sbsS'with-parms'
p1181
g3
(g4
g5
NtRp1182
(dp1183
g8
I00
sg9
I0
sg10
I0
sg11
S'Indicate if you wish to test for pARMS'
p1184
sg13
S'with-parms'
p1185
sbsS'with-fiat-dir'
p1186
g3
(g169
g5
NtRp1187
(dp1188
g19
I1
sg10
I0
sg11
S'Indicate the root directory of the fiat installation'
p1189
sg13
S'with-fiat-dir'
p1190
sg8
I00
sbsS'with-valgrind-lib'
p1191
g3
(g112
g5
NtRp1192
(dp1193
g19
I1
sg10
I0
sg11
S'Indicate the valgrind libraries'
p1194
sg13
S'with-valgrind-lib'
p1195
sg8
I00
sbsS'with-mathematica'
p1196
g3
(g4
g5
NtRp1197
(dp1198
g8
I00
sg9
I0
sg10
I0
sg11
S'Indicate if you wish to test for Mathematica'
p1199
sg13
S'with-mathematica'
p1200
sbsS'with-fiat-lib'
p1201
g3
(g112
g5
NtRp1202
(dp1203
g19
I1
sg10
I0
sg11
S'Indicate the fiat libraries'
p1204
sg13
S'with-fiat-lib'
p1205
sg8
I00
sbsS'with-suitesparse-include'
p1206
g3
(g16
g5
NtRp1207
(dp1208
g19
I1
sg10
I0
sg11
S'Indicate the directory of the SuiteSparse include files'
p1209
sg13
S'with-suitesparse-include'
p1210
sg8
I00
sbsS'with-external-packages-dir'
p1211
g3
(g23
g5
NtRp1212
(dp1213
g8
I00
sg10
I00
sg11
S'Location to install downloaded packages'
p1214
sg13
g1211
sbsS'with-netcdf-include'
p1215
g3
(g16
g5
NtRp1216
(dp1217
g19
I1
sg10
I0
sg11
S'Indicate the directory of the netcdf include files'
p1218
sg13
S'with-netcdf-include'
p1219
sg8
I00
sbsS'with-valgrind'
p1220
g3
(g4
g5
NtRp1221
(dp1222
g8
I00
sg9
I1
sg10
I0
sg11
S'Indicate if you wish to test for valgrind'
p1223
sg13
S'with-valgrind'
p1224
sbsS'with-spai-include'
p1225
g3
(g16
g5
NtRp1226
(dp1227
g19
I1
sg10
I0
sg11
S'Indicate the directory of the spai include files'
p1228
sg13
S'with-spai-include'
p1229
sg8
I00
sbsS'download-chaco'
p1230
g3
(g34
g5
NtRp1231
(dp1232
g8
I00
sg9
I0
sg10
I0
sg11
S'Download and install Chaco'
p1233
sg13
S'download-chaco'
p1234
sbsS'CC_LINKER_FLAGS'
p1235
g3
(g23
g5
NtRp1236
(dp1237
g8
I00
sg9
(lp1238
sg10
I00
sg11
S'Specify the C linker flags'
p1239
sg13
S'CC_LINKER_FLAGS'
p1240
sbsS'download-sowing-configure-arguments'
p1241
g3
(g95
g5
NtRp1242
(dp1243
g11
S'Additional GNU autoconf configure arguments for the buildsowing'
p1244
sg8
I00
sg9
I0
sg13
S'download-sowing-configure-arguments'
p1245
sg100
Nsg10
I0
sbsS'download-gmp-commit'
p1246
g3
(g95
g5
NtRp1247
(dp1248
g11
S'The commit id from a git repository to use for the buildgmp'
p1249
sg8
I00
sg9
I0
sg13
S'download-gmp-commit'
p1250
sg100
Nsg10
I0
sbsS'with-openmp-dir'
p1251
g3
(g169
g5
NtRp1252
(dp1253
g19
I1
sg10
I0
sg11
S'Indicate the root directory of the openmp installation'
p1254
sg13
S'with-openmp-dir'
p1255
sg8
I00
sbsS'download-hwloc-commit'
p1256
g3
(g95
g5
NtRp1257
(dp1258
g11
S'The commit id from a git repository to use for the buildhwloc'
p1259
sg8
I00
sg9
I0
sg13
S'download-hwloc-commit'
p1260
sg100
Nsg10
I0
sbsS'download-mpich-device'
p1261
g3
(g23
g5
NtRp1262
(dp1263
g8
I00
sg9
S'ch3:sock'
p1264
sg10
I00
sg11
S'Communicator for MPI processes'
p1265
sg13
S'download-mpich-device'
p1266
sbsS'with-mpi4py-lib'
p1267
g3
(g112
g5
NtRp1268
(dp1269
g19
I1
sg10
I0
sg11
S'Indicate the mpi4py libraries'
p1270
sg13
S'with-mpi4py-lib'
p1271
sg8
I00
sbsS'download-tetgen-commit'
p1272
g3
(g95
g5
NtRp1273
(dp1274
g11
S'The commit id from a git repository to use for the buildtetgen'
p1275
sg8
I00
sg9
I0
sg13
S'download-tetgen-commit'
p1276
sg100
Nsg10
I0
sbsS'scrollOutput'
p1277
g3
(g4
g5
NtRp1278
(dp1279
g8
I00
sg9
I0
sg10
I0
sg11
S'Flag to allow output to scroll rather than overwriting a single line'
p1280
sg13
g1277
sbsS'with-xsdktrilinos-pkg-config'
p1281
g3
(g23
g5
NtRp1282
(dp1283
g8
I00
sg10
I00
sg11
S'Look for xSDKTrilinos using pkg-config utility optional directory to look in'
p1284
sg13
S'with-xsdktrilinos-pkg-config'
p1285
sbsS'with-ptscotch-lib'
p1286
g3
(g112
g5
NtRp1287
(dp1288
g19
I1
sg10
I0
sg11
S'Indicate the PTScotch libraries'
p1289
sg13
S'with-ptscotch-lib'
p1290
sg8
I00
sbsS'with-mpi4py-dir'
p1291
g3
(g169
g5
NtRp1292
(dp1293
g19
I1
sg10
I0
sg11
S'Indicate the root directory of the mpi4py installation'
p1294
sg13
S'with-mpi4py-dir'
p1295
sg8
I00
sbsS'with-pastix-dir'
p1296
g3
(g169
g5
NtRp1297
(dp1298
g19
I1
sg10
I0
sg11
S'Indicate the root directory of the PaStiX installation'
p1299
sg13
S'with-pastix-dir'
p1300
sg8
I00
sbsS'download-moab-commit'
p1301
g3
(g95
g5
NtRp1302
(dp1303
g11
S'The commit id from a git repository to use for the buildMOAB'
p1304
sg8
I00
sg9
I0
sg13
S'download-moab-commit'
p1305
sg100
Nsg10
I0
sbsS'with-exodusii'
p1306
g3
(g4
g5
NtRp1307
(dp1308
g8
I00
sg9
I0
sg10
I0
sg11
S'Indicate if you wish to test for exodusii'
p1309
sg13
S'with-exodusii'
p1310
sbsS'download-make-shared'
p1311
g3
(g4
g5
NtRp1312
(dp1313
g8
I00
sg9
I0
sg10
I0
sg11
S'Install MAKE with shared libraries'
p1314
sg13
S'download-make-shared'
p1315
sbsS'download-hwloc'
p1316
g3
(g34
g5
NtRp1317
(dp1318
g8
I00
sg9
I0
sg10
I0
sg11
S'Download and install hwloc'
p1319
sg13
S'download-hwloc'
p1320
sbsS'with-suitesparse-lib'
p1321
g3
(g112
g5
NtRp1322
(dp1323
g19
I1
sg10
I0
sg11
S'Indicate the SuiteSparse libraries'
p1324
sg13
S'with-suitesparse-lib'
p1325
sg8
I00
sbsS'with-concurrencykit-include'
p1326
g3
(g16
g5
NtRp1327
(dp1328
g19
I1
sg10
I0
sg11
S'Indicate the directory of the concurrencykit include files'
p1329
sg13
S'with-concurrencykit-include'
p1330
sg8
I00
sbsS'download-zoltan-shared'
p1331
g3
(g4
g5
NtRp1332
(dp1333
g8
I00
sg9
I0
sg10
I0
sg11
S'Install ZOLTAN with shared libraries'
p1334
sg13
S'download-zoltan-shared'
p1335
sbsS'with-hdf5-include'
p1336
g3
(g16
g5
NtRp1337
(dp1338
g19
I1
sg10
I0
sg11
S'Indicate the directory of the hdf5 include files'
p1339
sg13
S'with-hdf5-include'
p1340
sg8
I00
sbsS'AR_FLAGS'
p1341
g3
(g23
g5
NtRp1342
(dp1343
g8
I00
sg10
I00
sg11
S'Specify the archiver flags'
p1344
sg13
S'AR_FLAGS'
p1345
sbsS'download-ascem-io'
p1346
g3
(g34
g5
NtRp1347
(dp1348
g8
I00
sg9
I0
sg10
I0
sg11
S'Download and install ascem-io'
p1349
sg13
S'download-ascem-io'
p1350
sbsS'download-chombo'
p1351
g3
(g34
g5
NtRp1352
(dp1353
g8
I00
sg9
I0
sg10
I0
sg11
S'Download and install Chombo'
p1354
sg13
S'download-chombo'
p1355
sbsS'with-metis-lib'
p1356
g3
(g112
g5
NtRp1357
(dp1358
g19
I1
sg10
I0
sg11
S'Indicate the metis libraries'
p1359
sg13
S'with-metis-lib'
p1360
sg8
I00
sbsS'with-c2html-include'
p1361
g3
(g16
g5
NtRp1362
(dp1363
g19
I1
sg10
I0
sg11
S'Indicate the directory of the c2html include files'
p1364
sg13
S'with-c2html-include'
p1365
sg8
I00
sbsS'with-sprng-pkg-config'
p1366
g3
(g23
g5
NtRp1367
(dp1368
g8
I00
sg10
I00
sg11
S'Look for sprng using pkg-config utility optional directory to look in'
p1369
sg13
S'with-sprng-pkg-config'
p1370
sbsS'CXXCPPFLAGS'
p1371
g3
(g23
g5
NtRp1372
(dp1373
g8
I00
sg10
I00
sg11
S'Specify the C++ preprocessor options'
p1374
sg13
S'CXXCPPFLAGS'
p1375
sbsS'with-amanzi'
p1376
g3
(g4
g5
NtRp1377
(dp1378
g8
I00
sg9
I0
sg10
I0
sg11
S'Indicate if you wish to test for amanzi'
p1379
sg13
S'with-amanzi'
p1380
sbsS'with-boost-include'
p1381
g3
(g16
g5
NtRp1382
(dp1383
g19
I1
sg10
I0
sg11
S'Indicate the directory of the boost include files'
p1384
sg13
S'with-boost-include'
p1385
sg8
I00
sbsS'download-parmetis-cmake-arguments'
p1386
g3
(g95
g5
NtRp1387
(dp1388
g11
S'Additional CMake arguments for the buildparmetis'
p1389
sg8
I00
sg9
I0
sg13
S'download-parmetis-cmake-arguments'
p1390
sg100
Nsg10
I0
sbsS'download-metis-shared'
p1391
g3
(g4
g5
NtRp1392
(dp1393
g8
I00
sg9
I0
sg10
I0
sg11
S'Install METIS with shared libraries'
p1394
sg13
S'download-metis-shared'
p1395
sbsS'with-matlab-engine-pkg-config'
p1396
g3
(g23
g5
NtRp1397
(dp1398
g8
I00
sg10
I00
sg11
S'Look for MatlabEngine using pkg-config utility optional directory to look in'
p1399
sg13
S'with-matlab-engine-pkg-config'
p1400
sbsS'download-superlu'
p1401
g3
(g34
g5
NtRp1402
(dp1403
g8
I00
sg9
I0
sg10
I0
sg11
S'Download and install SuperLU'
p1404
sg13
S'download-superlu'
p1405
sbsS'with-viennacl'
p1406
g3
(g4
g5
NtRp1407
(dp1408
g8
I00
sg9
I0
sg10
I0
sg11
S'Indicate if you wish to test for viennacl'
p1409
sg13
S'with-viennacl'
p1410
sbsS'with-mpi4py-pkg-config'
p1411
g3
(g23
g5
NtRp1412
(dp1413
g8
I00
sg10
I00
sg11
S'Look for mpi4py using pkg-config utility optional directory to look in'
p1414
sg13
S'with-mpi4py-pkg-config'
p1415
sbsS'with-shared-libraries'
p1416
g3
(g4
g5
NtRp1417
(dp1418
g8
I00
sg9
I1
sg10
I0
sg11
S'Make PETSc libraries shared -- libpetsc.so (Unix/Linux) or libpetsc.dylib (Mac)'
p1419
sg13
S'with-shared-libraries'
p1420
sbsS'download-unittestcpp-shared'
p1421
g3
(g4
g5
NtRp1422
(dp1423
g8
I00
sg9
I0
sg10
I0
sg11
S'Install UNITTESTCPP with shared libraries'
p1424
sg13
S'download-unittestcpp-shared'
p1425
sbsS'with-make-dir'
p1426
g3
(g169
g5
NtRp1427
(dp1428
g19
I1
sg10
I0
sg11
S'Indicate the root directory of the make installation'
p1429
sg13
S'with-make-dir'
p1430
sg8
I00
sbsS'with-pastix-lib'
p1431
g3
(g112
g5
NtRp1432
(dp1433
g19
I1
sg10
I0
sg11
S'Indicate the PaStiX libraries'
p1434
sg13
S'with-pastix-lib'
p1435
sg8
I00
sbsS'with-mkl_pardiso-dir'
p1436
g3
(g169
g5
NtRp1437
(dp1438
g19
I1
sg10
I0
sg11
S'Indicate the root directory of the mkl_pardiso installation'
p1439
sg13
S'with-mkl_pardiso-dir'
p1440
sg8
I00
sbsS'download-moab-shared'
p1441
g3
(g4
g5
NtRp1442
(dp1443
g8
I00
sg9
I0
sg10
I0
sg11
S'Install MOAB with shared libraries'
p1444
sg13
S'download-moab-shared'
p1445
sbsS'with-shared-ld'
p1446
g3
(g23
g5
NtRp1447
(dp1448
g8
I00
sg10
I00
sg11
S'Specify the shared linker'
p1449
sg13
S'with-shared-ld'
p1450
sbsS'download-amanzi-cmake-arguments'
p1451
g3
(g95
g5
NtRp1452
(dp1453
g11
S'Additional CMake arguments for the buildamanzi'
p1454
sg8
I00
sg9
I0
sg13
S'download-amanzi-cmake-arguments'
p1455
sg100
Nsg10
I0
sbsS'CUDAC'
p1456
g3
(g23
g5
NtRp1457
(dp1458
g8
I00
sg10
I00
sg11
S'Specify the CUDA compiler'
p1459
sg13
S'CUDAC'
p1460
sbsS'with-cxx-dialect'
p1461
g3
(g23
g5
NtRp1462
(dp1463
g8
I00
sg9
S''
sg10
I00
sg11
S'Dialect under which to compile C++ sources (e.g., C++11)'
p1464
sg13
S'with-cxx-dialect'
p1465
sbsS'with-alternatives'
p1466
g3
(g4
g5
NtRp1467
(dp1468
g8
I00
sg9
I0
sg10
I0
sg11
S'Provide a choice among alternative package installations'
p1469
sg13
g1466
sbsS'with-sprng-lib'
p1470
g3
(g112
g5
NtRp1471
(dp1472
g19
I1
sg10
I0
sg11
S'Indicate the sprng libraries'
p1473
sg13
S'with-sprng-lib'
p1474
sg8
I00
sbsS'with-viennacl-lib'
p1475
g3
(g112
g5
NtRp1476
(dp1477
g19
I1
sg10
I0
sg11
S'Indicate the viennacl libraries'
p1478
sg13
S'with-viennacl-lib'
p1479
sg8
I00
sbsS'download-openmpi'
p1480
g3
(g34
g5
NtRp1481
(dp1482
g8
I00
sg9
I0
sg10
I0
sg11
S'Download and install OpenMPI'
p1483
sg13
S'download-openmpi'
p1484
sbsS'download-exodusii'
p1485
g3
(g34
g5
NtRp1486
(dp1487
g8
I00
sg9
I0
sg10
I0
sg11
S'Download and install exodusii'
p1488
sg13
S'download-exodusii'
p1489
sbsS'download-metis-cmake-arguments'
p1490
g3
(g95
g5
NtRp1491
(dp1492
g11
S'Additional CMake arguments for the buildmetis'
p1493
sg8
I00
sg9
I0
sg13
S'download-metis-cmake-arguments'
p1494
sg100
Nsg10
I0
sbsS'download-f2cblaslapack'
p1495
g3
(g34
g5
NtRp1496
(dp1497
g8
I00
sg9
I0
sg10
I0
sg11
S'Download and install f2cblaslapack'
p1498
sg13
S'download-f2cblaslapack'
p1499
sbsS'with-boost-pkg-config'
p1500
g3
(g23
g5
NtRp1501
(dp1502
g8
I00
sg10
I00
sg11
S'Look for boost using pkg-config utility optional directory to look in'
p1503
sg13
S'with-boost-pkg-config'
p1504
sbsS'download-alquimia-cmake-arguments'
p1505
g3
(g95
g5
NtRp1506
(dp1507
g11
S'Additional CMake arguments for the buildalquimia'
p1508
sg8
I00
sg9
I0
sg13
S'download-alquimia-cmake-arguments'
p1509
sg100
Nsg10
I0
sbsS'with-c2html-dir'
p1510
g3
(g169
g5
NtRp1511
(dp1512
g19
I1
sg10
I0
sg11
S'Indicate the root directory of the c2html installation'
p1513
sg13
S'with-c2html-dir'
p1514
sg8
I00
sbsS'download-p4est-shared'
p1515
g3
(g4
g5
NtRp1516
(dp1517
g8
I00
sg9
I0
sg10
I0
sg11
S'Install P4EST with shared libraries'
p1518
sg13
S'download-p4est-shared'
p1519
sbsS'C_VERSION'
p1520
g3
(g23
g5
NtRp1521
(dp1522
g8
I00
sg9
S'Unknown'
p1523
sg10
I00
sg11
S'The version of the C compiler'
p1524
sg13
S'C_VERSION'
p1525
sbsS'with-cpp'
p1526
g3
(g23
g5
NtRp1527
(dp1528
g8
I00
sg10
I00
sg11
g313
sg13
S'with-cpp'
p1529
sbsS'with-p4est'
p1530
g3
(g4
g5
NtRp1531
(dp1532
g8
I00
sg9
I0
sg10
I0
sg11
S'Indicate if you wish to test for p4est'
p1533
sg13
S'with-p4est'
p1534
sbsS'with-yaml-include'
p1535
g3
(g16
g5
NtRp1536
(dp1537
g19
I1
sg10
I0
sg11
S'Indicate the directory of the yaml include files'
p1538
sg13
S'with-yaml-include'
p1539
sg8
I00
sbsS'download-boost-commit'
p1540
g3
(g95
g5
NtRp1541
(dp1542
g11
S'The commit id from a git repository to use for the buildboost'
p1543
sg8
I00
sg9
I0
sg13
S'download-boost-commit'
p1544
sg100
Nsg10
I0
sbsS'with-mpi4py-include'
p1545
g3
(g16
g5
NtRp1546
(dp1547
g19
I1
sg10
I0
sg11
S'Indicate the directory of the mpi4py include files'
p1548
sg13
S'with-mpi4py-include'
p1549
sg8
I00
sbsS'download-sundials-shared'
p1550
g3
(g4
g5
NtRp1551
(dp1552
g8
I00
sg9
I0
sg10
I0
sg11
S'Install SUNDIALS with shared libraries'
p1553
sg13
S'download-sundials-shared'
p1554
sbsS'with-openmp-lib'
p1555
g3
(g112
g5
NtRp1556
(dp1557
g19
I1
sg10
I0
sg11
S'Indicate the openmp libraries'
p1558
sg13
S'with-openmp-lib'
p1559
sg8
I00
sbsS'download-fftw-shared'
p1560
g3
(g4
g5
NtRp1561
(dp1562
g8
I00
sg9
I0
sg10
I0
sg11
S'Install FFTW with shared libraries'
p1563
sg13
S'download-fftw-shared'
p1564
sbsS'with-elemental'
p1565
g3
(g4
g5
NtRp1566
(dp1567
g8
I00
sg9
I0
sg10
I0
sg11
S'Indicate if you wish to test for elemental'
p1568
sg13
S'with-elemental'
p1569
sbsS'download-ctetgen'
p1570
g3
(g34
g5
NtRp1571
(dp1572
g8
I00
sg9
I0
sg10
I0
sg11
S'Download and install ctetgen'
p1573
sg13
S'download-ctetgen'
p1574
sbsS'with-petsc-arch'
p1575
g3
(g23
g5
NtRp1576
(dp1577
g8
I00
sg10
I00
sg11
S'The configuration name'
p1578
sg13
S'with-petsc-arch'
p1579
sbsS'with-cmake-exec'
p1580
g3
(g23
g5
NtRp1581
(dp1582
g8
I00
sg10
I00
sg11
S'CMake executable to look for'
p1583
sg13
S'with-cmake-exec'
p1584
sbsS'with-parmetis-lib'
p1585
g3
(g112
g5
NtRp1586
(dp1587
g19
I1
sg10
I0
sg11
S'Indicate the parmetis libraries'
p1588
sg13
S'with-parmetis-lib'
p1589
sg8
I00
sbsS'known-has-attribute-aligned'
p1590
g3
(g4
g5
NtRp1591
(dp1592
g8
I00
sg10
I0
sg11
S'Indicates __attribute((aligned(16)) directive works (the usual test will be skipped)'
p1593
sg13
S'known-has-attribute-aligned'
p1594
sbsS'with-opengles-include'
p1595
g3
(g16
g5
NtRp1596
(dp1597
g19
I1
sg10
I0
sg11
S'Indicate the directory of the opengles include files'
p1598
sg13
S'with-opengles-include'
p1599
sg8
I00
sbsS'with-errorchecking'
p1600
g3
(g4
g5
NtRp1601
(dp1602
g8
I00
sg9
I1
sg10
I0
sg11
S'Specify error checking/exceptions in libraries'
p1603
sg13
S'with-errorchecking'
p1604
sbsS'download-netcdf-commit'
p1605
g3
(g95
g5
NtRp1606
(dp1607
g11
S'The commit id from a git repository to use for the buildnetcdf'
p1608
sg8
I00
sg9
I0
sg13
S'download-netcdf-commit'
p1609
sg100
Nsg10
I0
sbsS'with-mkl_pardiso-lib'
p1610
g3
(g112
g5
NtRp1611
(dp1612
g19
I1
sg10
I0
sg11
S'Indicate the mkl_pardiso libraries'
p1613
sg13
S'with-mkl_pardiso-lib'
p1614
sg8
I00
sbsS'FC_VERSION'
p1615
g3
(g23
g5
NtRp1616
(dp1617
g8
I00
sg9
g1523
sg10
I00
sg11
S'The version of the Fortran compiler'
p1618
sg13
S'FC_VERSION'
p1619
sbsS'download-libjpeg'
p1620
g3
(g34
g5
NtRp1621
(dp1622
g8
I00
sg9
I0
sg10
I0
sg11
S'Download and install libjpeg'
p1623
sg13
S'download-libjpeg'
p1624
sbsS'download-sowing-cxxcpp'
p1625
g3
(g23
g5
NtRp1626
(dp1627
g8
I00
sg10
I00
sg11
S'CXX CPP for sowing configure'
p1628
sg13
S'download-sowing-cxxcpp'
p1629
sbsS'with-ascem-io'
p1630
g3
(g4
g5
NtRp1631
(dp1632
g8
I00
sg9
I0
sg10
I0
sg11
S'Indicate if you wish to test for ascem-io'
p1633
sg13
S'with-ascem-io'
p1634
sbsS'with-saws'
p1635
g3
(g4
g5
NtRp1636
(dp1637
g8
I00
sg9
I0
sg10
I0
sg11
S'Indicate if you wish to test for saws'
p1638
sg13
S'with-saws'
p1639
sbsS'download-superlu-cmake-arguments'
p1640
g3
(g95
g5
NtRp1641
(dp1642
g11
S'Additional CMake arguments for the buildSuperLU'
p1643
sg8
I00
sg9
I0
sg13
S'download-superlu-cmake-arguments'
p1644
sg100
Nsg10
I0
sbsS'download-pastix'
p1645
g3
(g34
g5
NtRp1646
(dp1647
g8
I00
sg9
I0
sg10
I0
sg11
S'Download and install PaStiX'
p1648
sg13
S'download-pastix'
p1649
sbsS'with-libpng-include'
p1650
g3
(g16
g5
NtRp1651
(dp1652
g19
I1
sg10
I0
sg11
S'Indicate the directory of the libpng include files'
p1653
sg13
S'with-libpng-include'
p1654
sg8
I00
sbsS'with-superlu-lib'
p1655
g3
(g112
g5
NtRp1656
(dp1657
g19
I1
sg10
I0
sg11
S'Indicate the SuperLU libraries'
p1658
sg13
S'with-superlu-lib'
p1659
sg8
I00
sbsS'with-x-lib'
p1660
g3
(g112
g5
NtRp1661
(dp1662
g19
I1
sg10
I0
sg11
S'Indicate the X libraries'
p1663
sg13
S'with-x-lib'
p1664
sg8
I00
sbsS'with-pragmatic-dir'
p1665
g3
(g169
g5
NtRp1666
(dp1667
g19
I1
sg10
I0
sg11
S'Indicate the root directory of the pragmatic installation'
p1668
sg13
S'with-pragmatic-dir'
p1669
sg8
I00
sbsS'with-hwloc-pkg-config'
p1670
g3
(g23
g5
NtRp1671
(dp1672
g8
I00
sg10
I00
sg11
S'Look for hwloc using pkg-config utility optional directory to look in'
p1673
sg13
S'with-hwloc-pkg-config'
p1674
sbsS'with-viennacl-dir'
p1675
g3
(g169
g5
NtRp1676
(dp1677
g19
I1
sg10
I0
sg11
S'Indicate the root directory of the viennacl installation'
p1678
sg13
S'with-viennacl-dir'
p1679
sg8
I00
sbsS'with-mathematica-include'
p1680
g3
(g16
g5
NtRp1681
(dp1682
g19
I1
sg10
I0
sg11
S'Indicate the directory of the Mathematica include files'
p1683
sg13
S'with-mathematica-include'
p1684
sg8
I00
sbsS'with-c2html-exec'
p1685
g3
(g23
g5
NtRp1686
(dp1687
g8
I00
sg10
I00
sg11
S'C2html executable to look for'
p1688
sg13
S'with-c2html-exec'
p1689
sbsS'with-gcov'
p1690
g3
(g4
g5
NtRp1691
(dp1692
g8
I00
sg9
I0
sg10
I0
sg11
S'Specify that GNUs coverage tool gcov is used'
p1693
sg13
S'with-gcov'
p1694
sbsS'with-revolve-dir'
p1695
g3
(g169
g5
NtRp1696
(dp1697
g19
I1
sg10
I0
sg11
S'Indicate the root directory of the revolve installation'
p1698
sg13
S'with-revolve-dir'
p1699
sg8
I00
sbsS'download-mpich-commit'
p1700
g3
(g95
g5
NtRp1701
(dp1702
g11
S'The commit id from a git repository to use for the buildMPICH'
p1703
sg8
I00
sg9
I0
sg13
S'download-mpich-commit'
p1704
sg100
Nsg10
I0
sbsS'with-matlab-arch'
p1705
g3
(g95
g5
NtRp1706
(dp1707
g100
Nsg10
I0
sg11
S'Use Matlab Architecture (default use first-found)'
p1708
sg13
S'with-matlab-arch'
p1709
sg8
I00
sbsS'with-ml'
p1710
g3
(g4
g5
NtRp1711
(dp1712
g8
I00
sg9
I0
sg10
I0
sg11
S'Indicate if you wish to test for ml'
p1713
sg13
S'with-ml'
p1714
sbsS'with-scientificpython-include'
p1715
g3
(g16
g5
NtRp1716
(dp1717
g19
I1
sg10
I0
sg11
S'Indicate the directory of the scientificpython include files'
p1718
sg13
S'with-scientificpython-include'
p1719
sg8
I00
sbsS'with-numpy-dir'
p1720
g3
(g169
g5
NtRp1721
(dp1722
g19
I1
sg10
I0
sg11
S'Indicate the root directory of the Numpy installation'
p1723
sg13
S'with-numpy-dir'
p1724
sg8
I00
sbsS'with-exodusii-pkg-config'
p1725
g3
(g23
g5
NtRp1726
(dp1727
g8
I00
sg10
I00
sg11
S'Look for exodusii using pkg-config utility optional directory to look in'
p1728
sg13
S'with-exodusii-pkg-config'
p1729
sbsS'with-trilinos-lib'
p1730
g3
(g112
g5
NtRp1731
(dp1732
g19
I1
sg10
I0
sg11
S'Indicate the Trilinos libraries'
p1733
sg13
S'with-trilinos-lib'
p1734
sg8
I00
sbsS'with-lgrind-dir'
p1735
g3
(g169
g5
NtRp1736
(dp1737
g19
I1
sg10
I0
sg11
S'Indicate the root directory of the lgrind installation'
p1738
sg13
S'with-lgrind-dir'
p1739
sg8
I00
sbsS'with-ascem-io-lib'
p1740
g3
(g112
g5
NtRp1741
(dp1742
g19
I1
sg10
I0
sg11
S'Indicate the ascem-io libraries'
p1743
sg13
S'with-ascem-io-lib'
p1744
sg8
I00
sbsS'download-metis'
p1745
g3
(g34
g5
NtRp1746
(dp1747
g8
I00
sg9
I0
sg10
I0
sg11
S'Download and install metis'
p1748
sg13
S'download-metis'
p1749
sbsS'download-make-cc'
p1750
g3
(g23
g5
NtRp1751
(dp1752
g8
I00
sg10
I00
sg11
S'C compiler for GNU make configure'
p1753
sg13
S'download-make-cc'
p1754
sbsS'with-blas-lib'
p1755
g3
(g112
g5
NtRp1756
(dp1757
g19
I1
sg10
I0
sg11
S'Indicate the library(s) containing BLAS'
p1758
sg13
S'with-blas-lib'
p1759
sg8
I00
sbsS'with-tetgen-include'
p1760
g3
(g16
g5
NtRp1761
(dp1762
g19
I1
sg10
I0
sg11
S'Indicate the directory of the tetgen include files'
p1763
sg13
S'with-tetgen-include'
p1764
sg8
I00
sbsS'with-fftw-include'
p1765
g3
(g16
g5
NtRp1766
(dp1767
g19
I1
sg10
I0
sg11
S'Indicate the directory of the fftw include files'
p1768
sg13
S'with-fftw-include'
p1769
sg8
I00
sbsS'download-mpi4py'
p1770
g3
(g34
g5
NtRp1771
(dp1772
g8
I00
sg9
I0
sg10
I0
sg11
S'Download and install mpi4py'
p1773
sg13
S'download-mpi4py'
p1774
sbsS'with-giflib'
p1775
g3
(g4
g5
NtRp1776
(dp1777
g8
I00
sg9
I0
sg10
I0
sg11
S'Indicate if you wish to test for giflib'
p1778
sg13
S'with-giflib'
p1779
sbsS'download-viennacl-commit'
p1780
g3
(g95
g5
NtRp1781
(dp1782
g11
S'The commit id from a git repository to use for the buildviennacl'
p1783
sg8
I00
sg9
I0
sg13
S'download-viennacl-commit'
p1784
sg100
Nsg10
I0
sbsS'CXX_CXXFLAGS'
p1785
g3
(g23
g5
NtRp1786
(dp1787
g8
I00
sg9
S''
sg10
I00
sg11
S'Specify the C++ compiler-only options, not passed to linker'
p1788
sg13
S'CXX_CXXFLAGS'
p1789
sbsS'with-make-np'
p1790
g3
(g668
g5
NtRp1791
(dp1792
g11
S'Default number of threads to use for parallel builds'
p1793
sg672
I1
sg673
L2147483648L
sg13
S'with-make-np'
p1794
sg8
I00
sg10
I0
sbsS'download-saws-commit'
p1795
g3
(g95
g5
NtRp1796
(dp1797
g11
S'The commit id from a git repository to use for the buildsaws'
p1798
sg8
I00
sg9
I0
sg13
S'download-saws-commit'
p1799
sg100
Nsg10
I0
sbsS'with-pastix'
p1800
g3
(g4
g5
NtRp1801
(dp1802
g8
I00
sg9
I0
sg10
I0
sg11
S'Indicate if you wish to test for PaStiX'
p1803
sg13
S'with-pastix'
p1804
sbsS'with-sowing'
p1805
g3
(g4
g5
NtRp1806
(dp1807
g8
I00
sg9
I0
sg10
I0
sg11
S'Indicate if you wish to test for sowing'
p1808
sg13
S'with-sowing'
p1809
sbsS'download-hypre-commit'
p1810
g3
(g95
g5
NtRp1811
(dp1812
g11
S'The commit id from a git repository to use for the buildhypre'
p1813
sg8
I00
sg9
I0
sg13
S'download-hypre-commit'
p1814
sg100
Nsg10
I0
sbsS'with-lgrind-include'
p1815
g3
(g16
g5
NtRp1816
(dp1817
g19
I1
sg10
I0
sg11
S'Indicate the directory of the lgrind include files'
p1818
sg13
S'with-lgrind-include'
p1819
sg8
I00
sbsS'download-sprng-commit'
p1820
g3
(g95
g5
NtRp1821
(dp1822
g11
S'The commit id from a git repository to use for the buildsprng'
p1823
sg8
I00
sg9
I0
sg13
S'download-sprng-commit'
p1824
sg100
Nsg10
I0
sbsS'with-ranlib'
p1825
g3
(g23
g5
NtRp1826
(dp1827
g8
I00
sg10
I00
sg11
S'Specify ranlib'
p1828
sg13
S'with-ranlib'
p1829
sbsS'with-gnu-compilers'
p1830
g3
(g4
g5
NtRp1831
(dp1832
g8
I00
sg9
I1
sg10
I0
sg11
S'Try to use GNU compilers'
p1833
sg13
S'with-gnu-compilers'
p1834
sbsS'download-sprng'
p1835
g3
(g34
g5
NtRp1836
(dp1837
g8
I00
sg9
I0
sg10
I0
sg11
S'Download and install sprng'
p1838
sg13
S'download-sprng'
p1839
sbsS'with-fc'
p1840
g3
(g23
g5
NtRp1841
(dp1842
g8
I00
sg10
I00
sg11
g531
sg13
S'with-fc'
p1843
sbsS'download-superlu_dist-commit'
p1844
g3
(g95
g5
NtRp1845
(dp1846
g11
S'The commit id from a git repository to use for the buildSuperLU_DIST'
p1847
sg8
I00
sg9
I0
sg13
S'download-superlu_dist-commit'
p1848
sg100
Nsg10
I0
sbsS'download-p4est-configure-arguments'
p1849
g3
(g95
g5
NtRp1850
(dp1851
g11
S'Additional GNU autoconf configure arguments for the buildp4est'
p1852
sg8
I00
sg9
I0
sg13
S'download-p4est-configure-arguments'
p1853
sg100
Nsg10
I0
sbsS'download-sundials-configure-arguments'
p1854
g3
(g95
g5
NtRp1855
(dp1856
g11
S'Additional GNU autoconf configure arguments for the buildsundials'
p1857
sg8
I00
sg9
I0
sg13
S'download-sundials-configure-arguments'
p1858
sg100
Nsg10
I0
sbsS'download-elemental-commit'
p1859
g3
(g95
g5
NtRp1860
(dp1861
g11
S'The commit id from a git repository to use for the buildelemental'
p1862
sg8
I00
sg9
I0
sg13
S'download-elemental-commit'
p1863
sg100
Nsg10
I0
sbsS'with-party-dir'
p1864
g3
(g169
g5
NtRp1865
(dp1866
g19
I1
sg10
I0
sg11
S'Indicate the root directory of the PARTY installation'
p1867
sg13
S'with-party-dir'
p1868
sg8
I00
sbsS'with-zoltan-dir'
p1869
g3
(g169
g5
NtRp1870
(dp1871
g19
I1
sg10
I0
sg11
S'Indicate the root directory of the Zoltan installation'
p1872
sg13
S'with-zoltan-dir'
p1873
sg8
I00
sbsS'download-parms-commit'
p1874
g3
(g95
g5
NtRp1875
(dp1876
g11
S'The commit id from a git repository to use for the buildpARMS'
p1877
sg8
I00
sg9
I0
sg13
S'download-parms-commit'
p1878
sg100
Nsg10
I0
sbsS'download-c2html-configure-arguments'
p1879
g3
(g95
g5
NtRp1880
(dp1881
g11
S'Additional GNU autoconf configure arguments for the buildc2html'
p1882
sg8
I00
sg9
I0
sg13
S'download-c2html-configure-arguments'
p1883
sg100
Nsg10
I0
sbsS'with-revolve-include'
p1884
g3
(g16
g5
NtRp1885
(dp1886
g19
I1
sg10
I0
sg11
S'Indicate the directory of the revolve include files'
p1887
sg13
S'with-revolve-include'
p1888
sg8
I00
sbsS'with-hypre-include'
p1889
g3
(g16
g5
NtRp1890
(dp1891
g19
I1
sg10
I0
sg11
S'Indicate the directory of the hypre include files'
p1892
sg13
S'with-hypre-include'
p1893
sg8
I00
sbsS'with-ssl'
p1894
g3
(g4
g5
NtRp1895
(dp1896
g8
I00
sg9
I1
sg10
I0
sg11
S'Indicate if you wish to test for ssl'
p1897
sg13
S'with-ssl'
p1898
sbsS'with-scalapack-lib'
p1899
g3
(g112
g5
NtRp1900
(dp1901
g19
I1
sg10
I0
sg11
S'Indicate the scalapack libraries'
p1902
sg13
S'with-scalapack-lib'
p1903
sg8
I00
sbsS'with-matlab-engine-include'
p1904
g3
(g16
g5
NtRp1905
(dp1906
g19
I1
sg10
I0
sg11
S'Indicate the directory of the MatlabEngine include files'
p1907
sg13
S'with-matlab-engine-include'
p1908
sg8
I00
sbsS'with-mpe-dir'
p1909
g3
(g169
g5
NtRp1910
(dp1911
g19
I1
sg10
I0
sg11
S'Indicate the root directory of the mpe installation'
p1912
sg13
S'with-mpe-dir'
p1913
sg8
I00
sbsS'with-amanzi-pkg-config'
p1914
g3
(g23
g5
NtRp1915
(dp1916
g8
I00
sg10
I00
sg11
S'Look for amanzi using pkg-config utility optional directory to look in'
p1917
sg13
S'with-amanzi-pkg-config'
p1918
sbsS'with-yaml-dir'
p1919
g3
(g169
g5
NtRp1920
(dp1921
g19
I1
sg10
I0
sg11
S'Indicate the root directory of the yaml installation'
p1922
sg13
S'with-yaml-dir'
p1923
sg8
I00
sbsS'with-amanzi-lib'
p1924
g3
(g112
g5
NtRp1925
(dp1926
g19
I1
sg10
I0
sg11
S'Indicate the amanzi libraries'
p1927
sg13
S'with-amanzi-lib'
p1928
sg8
I00
sbsS'with-parmetis-pkg-config'
p1929
g3
(g23
g5
NtRp1930
(dp1931
g8
I00
sg10
I00
sg11
S'Look for parmetis using pkg-config utility optional directory to look in'
p1932
sg13
S'with-parmetis-pkg-config'
p1933
sbsS'download-cusp'
p1934
g3
(g34
g5
NtRp1935
(dp1936
g8
I00
sg9
I0
sg10
I0
sg11
S'Download and install cusp'
p1937
sg13
S'download-cusp'
p1938
sbsS'with-chaco-dir'
p1939
g3
(g169
g5
NtRp1940
(dp1941
g19
I1
sg10
I0
sg11
S'Indicate the root directory of the Chaco installation'
p1942
sg13
S'with-chaco-dir'
p1943
sg8
I00
sbsS'download-parms'
p1944
g3
(g34
g5
NtRp1945
(dp1946
g8
I00
sg9
I0
sg10
I0
sg11
S'Download and install pARMS'
p1947
sg13
S'download-parms'
p1948
sbsS'download-giflib-configure-arguments'
p1949
g3
(g95
g5
NtRp1950
(dp1951
g11
S'Additional GNU autoconf configure arguments for the buildgiflib'
p1952
sg8
I00
sg9
I0
sg13
S'download-giflib-configure-arguments'
p1953
sg100
Nsg10
I0
sbsS'download-saws-shared'
p1954
g3
(g4
g5
NtRp1955
(dp1956
g8
I00
sg9
I0
sg10
I0
sg11
S'Install SAWS with shared libraries'
p1957
sg13
S'download-saws-shared'
p1958
sbsS'download-pflotran'
p1959
g3
(g34
g5
NtRp1960
(dp1961
g8
I00
sg9
I0
sg10
I0
sg11
S'Download and install pflotran'
p1962
sg13
S'download-pflotran'
p1963
sbsS'COPTFLAGS'
p1964
g3
(g23
g5
NtRp1965
(dp1966
g8
I00
sg10
I00
sg11
S'Override the debugging/optimization flags for the C compiler'
p1967
sg13
S'COPTFLAGS'
p1968
sbsS'download-superlu_dist'
p1969
g3
(g34
g5
NtRp1970
(dp1971
g8
I00
sg9
I0
sg10
I0
sg11
S'Download and install SuperLU_DIST'
p1972
sg13
S'download-superlu_dist'
p1973
sbsS'download-parmetis'
p1974
g3
(g34
g5
NtRp1975
(dp1976
g8
I00
sg9
I0
sg10
I0
sg11
S'Download and install parmetis'
p1977
sg13
S'download-parmetis'
p1978
sbsS'download-triangle'
p1979
g3
(g34
g5
NtRp1980
(dp1981
g8
I00
sg9
I0
sg10
I0
sg11
S'Download and install Triangle'
p1982
sg13
S'download-triangle'
p1983
sbsS'download-c2html-configure-options'
p1984
g3
(g23
g5
NtRp1985
(dp1986
g8
I00
sg10
I00
sg11
S'additional options for c2html'
p1987
sg13
S'download-c2html-configure-options'
p1988
sbsS'with-vendor-compilers'
p1989
g3
(g23
g5
NtRp1990
(dp1991
g8
I00
sg9
S''
sg10
I00
sg11
S'Try to use vendor compilers (no argument all vendors, 0 no vendors)'
p1992
sg13
S'with-vendor-compilers'
p1993
sbsS'download-moab-configure-arguments'
p1994
g3
(g95
g5
NtRp1995
(dp1996
g11
S'Additional GNU autoconf configure arguments for the buildMOAB'
p1997
sg8
I00
sg9
I0
sg13
S'download-moab-configure-arguments'
p1998
sg100
Nsg10
I0
sbsS'download-tetgen'
p1999
g3
(g34
g5
NtRp2000
(dp2001
g8
I00
sg9
I0
sg10
I0
sg11
S'Download and install tetgen'
p2002
sg13
S'download-tetgen'
p2003
sbsS'download-ctetgen-shared'
p2004
g3
(g4
g5
NtRp2005
(dp2006
g8
I00
sg9
I0
sg10
I0
sg11
S'Install CTETGEN with shared libraries'
p2007
sg13
S'download-ctetgen-shared'
p2008
sbsS'with-gmp-pkg-config'
p2009
g3
(g23
g5
NtRp2010
(dp2011
g8
I00
sg10
I00
sg11
S'Look for gmp using pkg-config utility optional directory to look in'
p2012
sg13
S'with-gmp-pkg-config'
p2013
sbsS'with-amanzi-dir'
p2014
g3
(g169
g5
NtRp2015
(dp2016
g19
I1
sg10
I0
sg11
S'Indicate the root directory of the amanzi installation'
p2017
sg13
S'with-amanzi-dir'
p2018
sg8
I00
sbsS'sharedLibraryFlags'
p2019
g3
(g23
g5
NtRp2020
(dp2021
g8
I00
sg9
(lp2022
sg10
I00
sg11
S'Specify the shared library flags'
p2023
sg13
S'sharedLibraryFlags'
p2024
sbsS'with-superlu-dir'
p2025
g3
(g169
g5
NtRp2026
(dp2027
g19
I1
sg10
I0
sg11
S'Indicate the root directory of the SuperLU installation'
p2028
sg13
S'with-superlu-dir'
p2029
sg8
I00
sbsS'with-suitesparse-dir'
p2030
g3
(g169
g5
NtRp2031
(dp2032
g19
I1
sg10
I0
sg11
S'Indicate the root directory of the SuiteSparse installation'
p2033
sg13
S'with-suitesparse-dir'
p2034
sg8
I00
sbsS'optionsModule'
p2035
g3
(g23
g5
NtRp2036
(dp2037
g8
I00
sg9
S'config.compilerOptions'
p2038
sg10
I00
sg11
S'The Python module used to determine compiler options and versions'
p2039
sg13
S'optionsModule'
p2040
sbsS'CXX_VERSION'
p2041
g3
(g23
g5
NtRp2042
(dp2043
g8
I00
sg9
g1523
sg10
I00
sg11
S'The version of the C++ compiler'
p2044
sg13
S'CXX_VERSION'
p2045
sbsS'with-mpi-include'
p2046
g3
(g16
g5
NtRp2047
(dp2048
g19
I1
sg10
I0
sg11
S'Indicate the directory of the MPI include files'
p2049
sg13
S'with-mpi-include'
p2050
sg8
I00
sbsS'download-mpe-configure-arguments'
p2051
g3
(g95
g5
NtRp2052
(dp2053
g11
S'Additional GNU autoconf configure arguments for the buildmpe'
p2054
sg8
I00
sg9
I0
sg13
S'download-mpe-configure-arguments'
p2055
sg100
Nsg10
I0
sbsS'download-cmake'
p2056
g3
(g34
g5
NtRp2057
(dp2058
g8
I00
sg9
I0
sg10
I0
sg11
S'Download and install cmake'
p2059
sg13
S'download-cmake'
p2060
sbsS'download-cmake-commit'
p2061
g3
(g95
g5
NtRp2062
(dp2063
g11
S'The commit id from a git repository to use for the buildcmake'
p2064
sg8
I00
sg9
I0
sg13
S'download-cmake-commit'
p2065
sg100
Nsg10
I0
sbsS'with-xsdktrilinos'
p2066
g3
(g4
g5
NtRp2067
(dp2068
g8
I00
sg9
I0
sg10
I0
sg11
S'Indicate if you wish to test for xSDKTrilinos'
p2069
sg13
S'with-xsdktrilinos'
p2070
sbsS'with-large-file-io'
p2071
g3
(g4
g5
NtRp2072
(dp2073
g8
I00
sg9
I0
sg10
I0
sg11
S'Allow IO with files greater then 2 GB'
p2074
sg13
S'with-large-file-io'
p2075
sbsS'with-mpiuni-fortran-binding'
p2076
g3
(g4
g5
NtRp2077
(dp2078
g8
I00
sg9
I1
sg10
I0
sg11
S'Build the MPIUni Fortran bindings'
p2079
sg13
S'with-mpiuni-fortran-binding'
p2080
sbsS'download-mpfr-configure-arguments'
p2081
g3
(g95
g5
NtRp2082
(dp2083
g11
S'Additional GNU autoconf configure arguments for the buildmpfr'
p2084
sg8
I00
sg9
I0
sg13
S'download-mpfr-configure-arguments'
p2085
sg100
Nsg10
I0
sbsS'with-trilinos-dir'
p2086
g3
(g169
g5
NtRp2087
(dp2088
g19
I1
sg10
I0
sg11
S'Indicate the root directory of the Trilinos installation'
p2089
sg13
S'with-trilinos-dir'
p2090
sg8
I00
sbsS'with-trilinos-pkg-config'
p2091
g3
(g23
g5
NtRp2092
(dp2093
g8
I00
sg10
I00
sg11
S'Look for Trilinos using pkg-config utility optional directory to look in'
p2094
sg13
S'with-trilinos-pkg-config'
p2095
sbsS'download-revolve-commit'
p2096
g3
(g95
g5
NtRp2097
(dp2098
g11
S'The commit id from a git repository to use for the buildrevolve'
p2099
sg8
I00
sg9
I0
sg13
S'download-revolve-commit'
p2100
sg100
Nsg10
I0
sbsS'PETSC_ARCH'
p2101
g3
(g23
g5
NtRp2102
(dp2103
g8
I00
sg10
I00
sg11
g1578
sg13
S'PETSC_ARCH'
p2104
sbsS'with-make'
p2105
g3
(g4
g5
NtRp2106
(dp2107
g8
I00
sg9
I0
sg10
I0
sg11
S'Indicate if you wish to test for make'
p2108
sg13
S'with-make'
p2109
sbsS'with-yaml-lib'
p2110
g3
(g112
g5
NtRp2111
(dp2112
g19
I1
sg10
I0
sg11
S'Indicate the yaml libraries'
p2113
sg13
S'with-yaml-lib'
p2114
sg8
I00
sbsS'with-cusp'
p2115
g3
(g4
g5
NtRp2116
(dp2117
g8
I00
sg9
I0
sg10
I0
sg11
S'Indicate if you wish to test for cusp'
p2118
sg13
S'with-cusp'
p2119
sbsS'with-scalapack-dir'
p2120
g3
(g169
g5
NtRp2121
(dp2122
g19
I1
sg10
I0
sg11
S'Indicate the root directory of the scalapack installation'
p2123
sg13
S'with-scalapack-dir'
p2124
sg8
I00
sbsS'download-superlu-commit'
p2125
g3
(g95
g5
NtRp2126
(dp2127
g11
S'The commit id from a git repository to use for the buildSuperLU'
p2128
sg8
I00
sg9
I0
sg13
S'download-superlu-commit'
p2129
sg100
Nsg10
I0
sbsS'debugIndent'
p2130
g3
(g23
g5
NtRp2131
(dp2132
g8
I00
sg9
S'  '
p2133
sg10
I00
sg11
S'The string used for log indentation'
p2134
sg13
g2130
sbsS'download-amanzi-shared'
p2135
g3
(g4
g5
NtRp2136
(dp2137
g8
I00
sg9
I0
sg10
I0
sg11
S'Install AMANZI with shared libraries'
p2138
sg13
S'download-amanzi-shared'
p2139
sbsS'with-mpi'
p2140
g3
(g4
g5
NtRp2141
(dp2142
g8
I00
sg9
I1
sg10
I0
sg11
S'Indicate if you wish to test for MPI'
p2143
sg13
S'with-mpi'
p2144
sbsS'CXXCPP'
p2145
g3
(g23
g5
NtRp2146
(dp2147
g8
I00
sg10
I00
sg11
S'Specify the C++ preprocessor'
p2148
sg13
S'CXXCPP'
p2149
sbsS'with-tchem-include'
p2150
g3
(g16
g5
NtRp2151
(dp2152
g19
I1
sg10
I0
sg11
S'Indicate the directory of the tchem include files'
p2153
sg13
S'with-tchem-include'
p2154
sg8
I00
sbsS'download-chaco-commit'
p2155
g3
(g95
g5
NtRp2156
(dp2157
g11
S'The commit id from a git repository to use for the buildChaco'
p2158
sg8
I00
sg9
I0
sg13
S'download-chaco-commit'
p2159
sg100
Nsg10
I0
sbsS'known-memcmp-ok'
p2160
g3
(g4
g5
NtRp2161
(dp2162
g8
I00
sg10
I0
sg11
S'Does memcmp() work correctly?'
p2163
sg13
S'known-memcmp-ok'
p2164
sbsS'with-pflotran'
p2165
g3
(g4
g5
NtRp2166
(dp2167
g8
I00
sg9
I0
sg10
I0
sg11
S'Indicate if you wish to test for pflotran'
p2168
sg13
S'with-pflotran'
p2169
sbsS'with-parmetis-include'
p2170
g3
(g16
g5
NtRp2171
(dp2172
g19
I1
sg10
I0
sg11
S'Indicate the directory of the parmetis include files'
p2173
sg13
S'with-parmetis-include'
p2174
sg8
I00
sbsS'with-cxxlib-autodetect'
p2175
g3
(g4
g5
NtRp2176
(dp2177
g8
I00
sg9
I1
sg10
I0
sg11
S'Autodetect C++ compiler libraries'
p2178
sg13
S'with-cxxlib-autodetect'
p2179
sbsS'download-scientificpython'
p2180
g3
(g34
g5
NtRp2181
(dp2182
g8
I00
sg9
I0
sg10
I0
sg11
S'Download and install scientificpython'
p2183
sg13
S'download-scientificpython'
p2184
sbsS'with-libjpeg-pkg-config'
p2185
g3
(g23
g5
NtRp2186
(dp2187
g8
I00
sg10
I00
sg11
S'Look for libjpeg using pkg-config utility optional directory to look in'
p2188
sg13
S'with-libjpeg-pkg-config'
p2189
sbsS'with-spai-lib'
p2190
g3
(g112
g5
NtRp2191
(dp2192
g19
I1
sg10
I0
sg11
S'Indicate the spai libraries'
p2193
sg13
S'with-spai-lib'
p2194
sg8
I00
sbsS'with-pami'
p2195
g3
(g4
g5
NtRp2196
(dp2197
g8
I00
sg9
I0
sg10
I0
sg11
S'Indicate if you wish to test for pami'
p2198
sg13
S'with-pami'
p2199
sbsS'with-c2html-lib'
p2200
g3
(g112
g5
NtRp2201
(dp2202
g19
I1
sg10
I0
sg11
S'Indicate the c2html libraries'
p2203
sg13
S'with-c2html-lib'
p2204
sg8
I00
sbsS'with-opencl-include'
p2205
g3
(g16
g5
NtRp2206
(dp2207
g19
I1
sg10
I0
sg11
S'Indicate the directory of the opencl include files'
p2208
sg13
S'with-opencl-include'
p2209
sg8
I00
sbsS'PETSC_DIR'
p2210
g3
(g23
g5
NtRp2211
(dp2212
g8
I00
sg10
I00
sg11
S'The root directory of the PETSc installation'
p2213
sg13
S'PETSC_DIR'
p2214
sbsS'with-opengl-pkg-config'
p2215
g3
(g23
g5
NtRp2216
(dp2217
g8
I00
sg10
I00
sg11
S'Look for opengl using pkg-config utility optional directory to look in'
p2218
sg13
S'with-opengl-pkg-config'
p2219
sbsS'with-opengles-lib'
p2220
g3
(g112
g5
NtRp2221
(dp2222
g19
I1
sg10
I0
sg11
S'Indicate the opengles libraries'
p2223
sg13
S'with-opengles-lib'
p2224
sg8
I00
sbsS'download-mpe-commit'
p2225
g3
(g95
g5
NtRp2226
(dp2227
g11
S'The commit id from a git repository to use for the buildmpe'
p2228
sg8
I00
sg9
I0
sg13
S'download-mpe-commit'
p2229
sg100
Nsg10
I0
sbsS'with-opengles-dir'
p2230
g3
(g169
g5
NtRp2231
(dp2232
g19
I1
sg10
I0
sg11
S'Indicate the root directory of the opengles installation'
p2233
sg13
S'with-opengles-dir'
p2234
sg8
I00
sbsS'with-mpe-lib'
p2235
g3
(g112
g5
NtRp2236
(dp2237
g19
I1
sg10
I0
sg11
S'Indicate the mpe libraries'
p2238
sg13
S'with-mpe-lib'
p2239
sg8
I00
sbsS'with-ml-dir'
p2240
g3
(g169
g5
NtRp2241
(dp2242
g19
I1
sg10
I0
sg11
S'Indicate the root directory of the ml installation'
p2243
sg13
S'with-ml-dir'
p2244
sg8
I00
sbsS'with-mpiexec'
p2245
g3
(g23
g5
NtRp2246
(dp2247
g8
I00
sg10
I00
sg11
S'The utility used to launch MPI jobs'
p2248
sg13
S'with-mpiexec'
p2249
sbsS'download-yaml-shared'
p2250
g3
(g4
g5
NtRp2251
(dp2252
g8
I00
sg9
I0
sg10
I0
sg11
S'Install YAML with shared libraries'
p2253
sg13
S'download-yaml-shared'
p2254
sbsS'known-endian'
p2255
g3
(g23
g5
NtRp2256
(dp2257
g8
I00
sg10
I00
sg11
S'Are bytes stored in big or little endian?'
p2258
sg13
S'known-endian'
p2259
sbsS'FFLAGS'
p2260
g3
(g23
g5
NtRp2261
(dp2262
g8
I00
sg10
I00
sg11
S'Specify the Fortran compiler options'
p2263
sg13
S'FFLAGS'
p2264
sbsS'with-hwloc-dir'
p2265
g3
(g169
g5
NtRp2266
(dp2267
g19
I1
sg10
I0
sg11
S'Indicate the root directory of the hwloc installation'
p2268
sg13
S'with-hwloc-dir'
p2269
sg8
I00
sbsS'DATAFILESPATH'
p2270
g3
(g23
g5
NtRp2271
(dp2272
g8
I00
sg10
I00
sg11
S'Specifiy location of PETSc datafiles, e.g. test matrices'
p2273
sg13
S'DATAFILESPATH'
p2274
sbsS'with-unittestcpp-pkg-config'
p2275
g3
(g23
g5
NtRp2276
(dp2277
g8
I00
sg10
I00
sg11
S'Look for unittestcpp using pkg-config utility optional directory to look in'
p2278
sg13
S'with-unittestcpp-pkg-config'
p2279
sbsS'with-fftw-pkg-config'
p2280
g3
(g23
g5
NtRp2281
(dp2282
g8
I00
sg10
I00
sg11
S'Look for fftw using pkg-config utility optional directory to look in'
p2283
sg13
S'with-fftw-pkg-config'
p2284
sbsS'with-papi-include'
p2285
g3
(g16
g5
NtRp2286
(dp2287
g19
I1
sg10
I0
sg11
S'Indicate the directory of the papi include files'
p2288
sg13
S'with-papi-include'
p2289
sg8
I00
sbsS'download-elemental'
p2290
g3
(g34
g5
NtRp2291
(dp2292
g8
I00
sg9
I0
sg10
I0
sg11
S'Download and install elemental'
p2293
sg13
S'download-elemental'
p2294
sbsS'with-amanzi-include'
p2295
g3
(g16
g5
NtRp2296
(dp2297
g19
I1
sg10
I0
sg11
S'Indicate the directory of the amanzi include files'
p2298
sg13
S'with-amanzi-include'
p2299
sg8
I00
sbsS'with-mpe'
p2300
g3
(g4
g5
NtRp2301
(dp2302
g8
I00
sg9
I0
sg10
I0
sg11
S'Indicate if you wish to test for mpe'
p2303
sg13
S'with-mpe'
p2304
sbsS'with-cusp-pkg-config'
p2305
g3
(g23
g5
NtRp2306
(dp2307
g8
I00
sg10
I00
sg11
S'Look for cusp using pkg-config utility optional directory to look in'
p2308
sg13
S'with-cusp-pkg-config'
p2309
sbsS'with-parms-include'
p2310
g3
(g16
g5
NtRp2311
(dp2312
g19
I1
sg10
I0
sg11
S'Indicate the directory of the pARMS include files'
p2313
sg13
S'with-parms-include'
p2314
sg8
I00
sbsS'download-zoltan-configure-arguments'
p2315
g3
(g95
g5
NtRp2316
(dp2317
g11
S'Additional GNU autoconf configure arguments for the buildZoltan'
p2318
sg8
I00
sg9
I0
sg13
S'download-zoltan-configure-arguments'
p2319
sg100
Nsg10
I0
sbsS'with-mkl_pardiso-pkg-config'
p2320
g3
(g23
g5
NtRp2321
(dp2322
g8
I00
sg10
I00
sg11
S'Look for mkl_pardiso using pkg-config utility optional directory to look in'
p2323
sg13
S'with-mkl_pardiso-pkg-config'
p2324
sbsS'with-viewfromoptions'
p2325
g3
(g4
g5
NtRp2326
(dp2327
g8
I00
sg9
I1
sg10
I0
sg11
S'Support XXXSetFromOptions() calls, for calls with many small solvers turn this off'
p2328
sg13
S'with-viewfromoptions'
p2329
sbsS'download-cmake-shared'
p2330
g3
(g4
g5
NtRp2331
(dp2332
g8
I00
sg9
I0
sg10
I0
sg11
S'Install CMAKE with shared libraries'
p2333
sg13
S'download-cmake-shared'
p2334
sbsS'with-glut-lib'
p2335
g3
(g112
g5
NtRp2336
(dp2337
g19
I1
sg10
I0
sg11
S'Indicate the glut libraries'
p2338
sg13
S'with-glut-lib'
p2339
sg8
I00
sbsS'with-gmp'
p2340
g3
(g4
g5
NtRp2341
(dp2342
g8
I00
sg9
I0
sg10
I0
sg11
S'Indicate if you wish to test for gmp'
p2343
sg13
S'with-gmp'
p2344
sbsS'CUDAC_LINKER_FLAGS'
p2345
g3
(g23
g5
NtRp2346
(dp2347
g8
I00
sg9
(lp2348
sg10
I00
sg11
S'Specify the CUDA linker flags'
p2349
sg13
S'CUDAC_LINKER_FLAGS'
p2350
sbsS'with-pic'
p2351
g3
(g4
g5
NtRp2352
(dp2353
g8
I00
sg9
I0
sg10
I0
sg11
S'Compile with -fPIC or equivalent flag if possible'
p2354
sg13
S'with-pic'
p2355
sbsS'download-mumps-commit'
p2356
g3
(g95
g5
NtRp2357
(dp2358
g11
S'The commit id from a git repository to use for the buildMUMPS'
p2359
sg8
I00
sg9
I0
sg13
S'download-mumps-commit'
p2360
sg100
Nsg10
I0
sbsS'download-parmetis-shared'
p2361
g3
(g4
g5
NtRp2362
(dp2363
g8
I00
sg9
I0
sg10
I0
sg11
S'Install PARMETIS with shared libraries'
p2364
sg13
S'download-parmetis-shared'
p2365
sbsS'with-party-lib'
p2366
g3
(g112
g5
NtRp2367
(dp2368
g19
I1
sg10
I0
sg11
S'Indicate the PARTY libraries'
p2369
sg13
S'with-party-lib'
p2370
sg8
I00
sbsS'download-concurrencykit-configure-arguments'
p2371
g3
(g95
g5
NtRp2372
(dp2373
g11
S'Additional GNU autoconf configure arguments for the buildconcurrencykit'
p2374
sg8
I00
sg9
I0
sg13
S'download-concurrencykit-configure-arguments'
p2375
sg100
Nsg10
I0
sbsS'with-parms-pkg-config'
p2376
g3
(g23
g5
NtRp2377
(dp2378
g8
I00
sg10
I00
sg11
S'Look for pARMS using pkg-config utility optional directory to look in'
p2379
sg13
S'with-parms-pkg-config'
p2380
sbsS'with-tchem-dir'
p2381
g3
(g169
g5
NtRp2382
(dp2383
g19
I1
sg10
I0
sg11
S'Indicate the root directory of the tchem installation'
p2384
sg13
S'with-tchem-dir'
p2385
sg8
I00
sbsS'with-pflotran-include'
p2386
g3
(g16
g5
NtRp2387
(dp2388
g19
I1
sg10
I0
sg11
S'Indicate the directory of the pflotran include files'
p2389
sg13
S'with-pflotran-include'
p2390
sg8
I00
sbsS'with-pflotran-pkg-config'
p2391
g3
(g23
g5
NtRp2392
(dp2393
g8
I00
sg10
I00
sg11
S'Look for pflotran using pkg-config utility optional directory to look in'
p2394
sg13
S'with-pflotran-pkg-config'
p2395
sbsS'with-ctetgen-pkg-config'
p2396
g3
(g23
g5
NtRp2397
(dp2398
g8
I00
sg10
I00
sg11
S'Look for ctetgen using pkg-config utility optional directory to look in'
p2399
sg13
S'with-ctetgen-pkg-config'
p2400
sbsS'with-alquimia'
p2401
g3
(g4
g5
NtRp2402
(dp2403
g8
I00
sg9
I0
sg10
I0
sg11
S'Indicate if you wish to test for alquimia'
p2404
sg13
S'with-alquimia'
p2405
sbsS'download-sundials-commit'
p2406
g3
(g95
g5
NtRp2407
(dp2408
g11
S'The commit id from a git repository to use for the buildsundials'
p2409
sg8
I00
sg9
I0
sg13
S'download-sundials-commit'
p2410
sg100
Nsg10
I0
sbsS'download-alquimia-commit'
p2411
g3
(g95
g5
NtRp2412
(dp2413
g11
S'The commit id from a git repository to use for the buildalquimia'
p2414
sg8
I00
sg9
I0
sg13
S'download-alquimia-commit'
p2415
sg100
Nsg10
I0
sbsS'with-superlu'
p2416
g3
(g4
g5
NtRp2417
(dp2418
g8
I00
sg9
I0
sg10
I0
sg11
S'Indicate if you wish to test for SuperLU'
p2419
sg13
S'with-superlu'
p2420
sbsS'with-cxx'
p2421
g3
(g23
g5
NtRp2422
(dp2423
g8
I00
sg10
I00
sg11
S'Specify the C++ compiler'
p2424
sg13
S'with-cxx'
p2425
sbsS'with-ptscotch-include'
p2426
g3
(g16
g5
NtRp2427
(dp2428
g19
I1
sg10
I0
sg11
S'Indicate the directory of the PTScotch include files'
p2429
sg13
S'with-ptscotch-include'
p2430
sg8
I00
sbsS'with-libjpeg'
p2431
g3
(g4
g5
NtRp2432
(dp2433
g8
I00
sg9
I0
sg10
I0
sg11
S'Indicate if you wish to test for libjpeg'
p2434
sg13
S'with-libjpeg'
p2435
sbsS'download-xsdktrilinos-cmake-arguments'
p2436
g3
(g95
g5
NtRp2437
(dp2438
g11
S'Additional CMake arguments for the buildxSDKTrilinos'
p2439
sg8
I00
sg9
I0
sg13
S'download-xsdktrilinos-cmake-arguments'
p2440
sg100
Nsg10
I0
sbsS'download-mpe-shared'
p2441
g3
(g4
g5
NtRp2442
(dp2443
g8
I00
sg9
I0
sg10
I0
sg11
S'Install MPE with shared libraries'
p2444
sg13
S'download-mpe-shared'
p2445
sbsS'CUDAPPFLAGS'
p2446
g3
(g23
g5
NtRp2447
(dp2448
g8
I00
sg10
I00
sg11
S'Specify the CUDA preprocessor options'
p2449
sg13
S'CUDAPPFLAGS'
p2450
sbsS'with-p4est-include'
p2451
g3
(g16
g5
NtRp2452
(dp2453
g19
I1
sg10
I0
sg11
S'Indicate the directory of the p4est include files'
p2454
sg13
S'with-p4est-include'
p2455
sg8
I00
sbsS'with-unittestcpp-lib'
p2456
g3
(g112
g5
NtRp2457
(dp2458
g19
I1
sg10
I0
sg11
S'Indicate the unittestcpp libraries'
p2459
sg13
S'with-unittestcpp-lib'
p2460
sg8
I00
sbsS'with-sprng'
p2461
g3
(g4
g5
NtRp2462
(dp2463
g8
I00
sg9
I0
sg10
I0
sg11
S'Indicate if you wish to test for sprng'
p2464
sg13
S'with-sprng'
p2465
sbsS'download-sowing-shared'
p2466
g3
(g4
g5
NtRp2467
(dp2468
g8
I00
sg9
I0
sg10
I0
sg11
S'Install SOWING with shared libraries'
p2469
sg13
S'download-sowing-shared'
p2470
sbsS'with-superlu_mt-lib'
p2471
g3
(g112
g5
NtRp2472
(dp2473
g19
I1
sg10
I0
sg11
S'Indicate the SuperLU_MT libraries'
p2474
sg13
S'with-superlu_mt-lib'
p2475
sg8
I00
sbsS'with-ssl-lib'
p2476
g3
(g112
g5
NtRp2477
(dp2478
g19
I1
sg10
I0
sg11
S'Indicate the ssl libraries'
p2479
sg13
S'with-ssl-lib'
p2480
sg8
I00
sbsS'with-libpng-pkg-config'
p2481
g3
(g23
g5
NtRp2482
(dp2483
g8
I00
sg10
I00
sg11
S'Look for libpng using pkg-config utility optional directory to look in'
p2484
sg13
S'with-libpng-pkg-config'
p2485
sbsS'with-mkl_cpardiso-lib'
p2486
g3
(g112
g5
NtRp2487
(dp2488
g19
I1
sg10
I0
sg11
S'Indicate the mkl_cpardiso libraries'
p2489
sg13
S'with-mkl_cpardiso-lib'
p2490
sg8
I00
sbsS'with-tchem-lib'
p2491
g3
(g112
g5
NtRp2492
(dp2493
g19
I1
sg10
I0
sg11
S'Indicate the tchem libraries'
p2494
sg13
S'with-tchem-lib'
p2495
sg8
I00
sbsS'download-tchem'
p2496
g3
(g34
g5
NtRp2497
(dp2498
g8
I00
sg9
I0
sg10
I0
sg11
S'Download and install tchem'
p2499
sg13
S'download-tchem'
p2500
sbsS'with-pragmatic-include'
p2501
g3
(g16
g5
NtRp2502
(dp2503
g19
I1
sg10
I0
sg11
S'Indicate the directory of the pragmatic include files'
p2504
sg13
S'with-pragmatic-include'
p2505
sg8
I00
sbsS'CC'
p2506
g3
(g23
g5
NtRp2507
(dp2508
g8
I00
sg10
I00
sg11
g945
sg13
S'CC'
p2509
sbsS'with-blas-lapack-dir'
p2510
g3
(g169
g5
NtRp2511
(dp2512
g19
I1
sg10
I0
sg11
S'Indicate the directory containing BLAS and LAPACK libraries'
p2513
sg13
S'with-blas-lapack-dir'
p2514
sg8
I00
sbsS'with-scalapack-pkg-config'
p2515
g3
(g23
g5
NtRp2516
(dp2517
g8
I00
sg10
I00
sg11
S'Look for scalapack using pkg-config utility optional directory to look in'
p2518
sg13
S'with-scalapack-pkg-config'
p2519
sbsS'download-netcdf'
p2520
g3
(g34
g5
NtRp2521
(dp2522
g8
I00
sg9
I0
sg10
I0
sg11
S'Download and install netcdf'
p2523
sg13
S'download-netcdf'
p2524
sbsS'download-ml-shared'
p2525
g3
(g4
g5
NtRp2526
(dp2527
g8
I00
sg9
I0
sg10
I0
sg11
S'Install ML with shared libraries'
p2528
sg13
S'download-ml-shared'
p2529
sbsS'with-numpy-pkg-config'
p2530
g3
(g23
g5
NtRp2531
(dp2532
g8
I00
sg10
I00
sg11
S'Look for Numpy using pkg-config utility optional directory to look in'
p2533
sg13
S'with-numpy-pkg-config'
p2534
sbsS'download-mstk-shared'
p2535
g3
(g4
g5
NtRp2536
(dp2537
g8
I00
sg9
I0
sg10
I0
sg11
S'Install MSTK with shared libraries'
p2538
sg13
S'download-mstk-shared'
p2539
sbsS'with-elemental-include'
p2540
g3
(g16
g5
NtRp2541
(dp2542
g19
I1
sg10
I0
sg11
S'Indicate the directory of the elemental include files'
p2543
sg13
S'with-elemental-include'
p2544
sg8
I00
sbsS'download-libjpeg-configure-arguments'
p2545
g3
(g95
g5
NtRp2546
(dp2547
g11
S'Additional GNU autoconf configure arguments for the buildlibjpeg'
p2548
sg8
I00
sg9
I0
sg13
S'download-libjpeg-configure-arguments'
p2549
sg100
Nsg10
I0
sbsS'download-mpich-pm'
p2550
g3
(g23
g5
NtRp2551
(dp2552
g8
I00
sg9
S'hydra'
p2553
sg10
I00
sg11
S'Launcher for MPI processes'
p2554
sg13
S'download-mpich-pm'
p2555
sbsS'download-giflib-shared'
p2556
g3
(g4
g5
NtRp2557
(dp2558
g8
I00
sg9
I0
sg10
I0
sg11
S'Install GIFLIB with shared libraries'
p2559
sg13
S'download-giflib-shared'
p2560
sbsS'with-cuda-arch'
p2561
g3
(g23
g5
NtRp2562
(dp2563
g8
I00
sg10
I00
sg11
S'Target architecture for nvcc, e.g. sm_20'
p2564
sg13
S'with-cuda-arch'
p2565
sbsS'with-numpy'
p2566
g3
(g4
g5
NtRp2567
(dp2568
g8
I00
sg9
I0
sg10
I0
sg11
S'Indicate if you wish to test for Numpy'
p2569
sg13
S'with-numpy'
p2570
sbsS'with-papi-pkg-config'
p2571
g3
(g23
g5
NtRp2572
(dp2573
g8
I00
sg10
I00
sg11
S'Look for papi using pkg-config utility optional directory to look in'
p2574
sg13
S'with-papi-pkg-config'
p2575
sbsS'with-ml-lib'
p2576
g3
(g112
g5
NtRp2577
(dp2578
g19
I1
sg10
I0
sg11
S'Indicate the ml libraries'
p2579
sg13
S'with-ml-lib'
p2580
sg8
I00
sbsS'with-elemental-dir'
p2581
g3
(g169
g5
NtRp2582
(dp2583
g19
I1
sg10
I0
sg11
S'Indicate the root directory of the elemental installation'
p2584
sg13
S'with-elemental-dir'
p2585
sg8
I00
sbsS'with-prefetch'
p2586
g3
(g4
g5
NtRp2587
(dp2588
g8
I00
sg9
I1
sg10
I0
sg11
S'Enable checking for prefetch instructions'
p2589
sg13
S'with-prefetch'
p2590
sbsS'with-mpi-lib'
p2591
g3
(g112
g5
NtRp2592
(dp2593
g19
I1
sg10
I0
sg11
S'Indicate the MPI libraries'
p2594
sg13
S'with-mpi-lib'
p2595
sg8
I00
sbsS'with-make-pkg-config'
p2596
g3
(g23
g5
NtRp2597
(dp2598
g8
I00
sg10
I00
sg11
S'Look for make using pkg-config utility optional directory to look in'
p2599
sg13
S'with-make-pkg-config'
p2600
sbsS'with-opencl-pkg-config'
p2601
g3
(g23
g5
NtRp2602
(dp2603
g8
I00
sg10
I00
sg11
S'Look for opencl using pkg-config utility optional directory to look in'
p2604
sg13
S'with-opencl-pkg-config'
p2605
sbsS'with-yaml'
p2606
g3
(g4
g5
NtRp2607
(dp2608
g8
I00
sg9
I0
sg10
I0
sg11
S'Indicate if you wish to test for yaml'
p2609
sg13
S'with-yaml'
p2610
sbsS'download-fftw'
p2611
g3
(g34
g5
NtRp2612
(dp2613
g8
I00
sg9
I0
sg10
I0
sg11
S'Download and install fftw'
p2614
sg13
S'download-fftw'
p2615
sbsS'with-pami-lib'
p2616
g3
(g112
g5
NtRp2617
(dp2618
g19
I1
sg10
I0
sg11
S'Indicate the pami libraries'
p2619
sg13
S'with-pami-lib'
p2620
sg8
I00
sbsS'with-ctetgen'
p2621
g3
(g4
g5
NtRp2622
(dp2623
g8
I00
sg9
I0
sg10
I0
sg11
S'Indicate if you wish to test for ctetgen'
p2624
sg13
S'with-ctetgen'
p2625
sbsS'with-unittestcpp-dir'
p2626
g3
(g169
g5
NtRp2627
(dp2628
g19
I1
sg10
I0
sg11
S'Indicate the root directory of the unittestcpp installation'
p2629
sg13
S'with-unittestcpp-dir'
p2630
sg8
I00
sbsS'with-sprng-dir'
p2631
g3
(g169
g5
NtRp2632
(dp2633
g19
I1
sg10
I0
sg11
S'Indicate the root directory of the sprng installation'
p2634
sg13
S'with-sprng-dir'
p2635
sg8
I00
sbsS'with-mathematica-dir'
p2636
g3
(g169
g5
NtRp2637
(dp2638
g19
I1
sg10
I0
sg11
S'Indicate the root directory of the Mathematica installation'
p2639
sg13
S'with-mathematica-dir'
p2640
sg8
I00
sbsS'with-glut-include'
p2641
g3
(g16
g5
NtRp2642
(dp2643
g19
I1
sg10
I0
sg11
S'Indicate the directory of the glut include files'
p2644
sg13
S'with-glut-include'
p2645
sg8
I00
sbsS'download-make-configure-options'
p2646
g3
(g23
g5
NtRp2647
(dp2648
g8
I00
sg10
I00
sg11
S'additional options for GNU make configure'
p2649
sg13
S'download-make-configure-options'
p2650
sbsS'download-fiat'
p2651
g3
(g34
g5
NtRp2652
(dp2653
g8
I00
sg9
I0
sg10
I0
sg11
S'Download and install fiat'
p2654
sg13
S'download-fiat'
p2655
sbsS'with-zoltan-include'
p2656
g3
(g16
g5
NtRp2657
(dp2658
g19
I1
sg10
I0
sg11
S'Indicate the directory of the Zoltan include files'
p2659
sg13
S'with-zoltan-include'
p2660
sg8
I00
sbsS'with-viennacl-pkg-config'
p2661
g3
(g23
g5
NtRp2662
(dp2663
g8
I00
sg10
I00
sg11
S'Look for viennacl using pkg-config utility optional directory to look in'
p2664
sg13
S'with-viennacl-pkg-config'
p2665
sbsS'with-ctetgen-include'
p2666
g3
(g16
g5
NtRp2667
(dp2668
g19
I1
sg10
I0
sg11
S'Indicate the directory of the ctetgen include files'
p2669
sg13
S'with-ctetgen-include'
p2670
sg8
I00
sbsS'with-elemental-pkg-config'
p2671
g3
(g23
g5
NtRp2672
(dp2673
g8
I00
sg10
I00
sg11
S'Look for elemental using pkg-config utility optional directory to look in'
p2674
sg13
S'with-elemental-pkg-config'
p2675
sbsS'with-mpi4py'
p2676
g3
(g4
g5
NtRp2677
(dp2678
g8
I00
sg9
I0
sg10
I0
sg11
S'Indicate if you wish to test for mpi4py'
p2679
sg13
S'with-mpi4py'
p2680
sbsS'download-superlu-shared'
p2681
g3
(g4
g5
NtRp2682
(dp2683
g8
I00
sg9
I0
sg10
I0
sg11
S'Install SUPERLU with shared libraries'
p2684
sg13
S'download-superlu-shared'
p2685
sbsS'ignoreWarnings'
p2686
g3
(g4
g5
NtRp2687
(dp2688
g8
I00
sg9
I0
sg10
I0
sg11
S'Ignore compiler and linker warnings'
p2689
sg13
g2686
sbsS'with-hdf5-pkg-config'
p2690
g3
(g23
g5
NtRp2691
(dp2692
g8
I00
sg10
I00
sg11
S'Look for hdf5 using pkg-config utility optional directory to look in'
p2693
sg13
S'with-hdf5-pkg-config'
p2694
sbsS'with-ctetgen-lib'
p2695
g3
(g112
g5
NtRp2696
(dp2697
g19
I1
sg10
I0
sg11
S'Indicate the ctetgen libraries'
p2698
sg13
S'with-ctetgen-lib'
p2699
sg8
I00
sbsS'with-tetgen-pkg-config'
p2700
g3
(g23
g5
NtRp2701
(dp2702
g8
I00
sg10
I00
sg11
S'Look for tetgen using pkg-config utility optional directory to look in'
p2703
sg13
S'with-tetgen-pkg-config'
p2704
sbsS'download-libjpeg-commit'
p2705
g3
(g95
g5
NtRp2706
(dp2707
g11
S'The commit id from a git repository to use for the buildlibjpeg'
p2708
sg8
I00
sg9
I0
sg13
S'download-libjpeg-commit'
p2709
sg100
Nsg10
I0
sbsS'with-cgns-pkg-config'
p2710
g3
(g23
g5
NtRp2711
(dp2712
g8
I00
sg10
I00
sg11
S'Look for cgns using pkg-config utility optional directory to look in'
p2713
sg13
S'with-cgns-pkg-config'
p2714
sbsS'with-opengl-dir'
p2715
g3
(g169
g5
NtRp2716
(dp2717
g19
I1
sg10
I0
sg11
S'Indicate the root directory of the opengl installation'
p2718
sg13
S'with-opengl-dir'
p2719
sg8
I00
sbsS'with-threadsafety'
p2720
g3
(g4
g5
NtRp2721
(dp2722
g8
I00
sg9
I0
sg10
I0
sg11
S'Allow individual threads in PETSc to call PETSc routines'
p2723
sg13
S'with-threadsafety'
p2724
sbsS'with-p4est-dir'
p2725
g3
(g169
g5
NtRp2726
(dp2727
g19
I1
sg10
I0
sg11
S'Indicate the root directory of the p4est installation'
p2728
sg13
S'with-p4est-dir'
p2729
sg8
I00
sbsS'download-openmpi-commit'
p2730
g3
(g95
g5
NtRp2731
(dp2732
g11
S'The commit id from a git repository to use for the buildOpenMPI'
p2733
sg8
I00
sg9
I0
sg13
S'download-openmpi-commit'
p2734
sg100
Nsg10
I0
sbsS'with-mkl_cpardiso-dir'
p2735
g3
(g169
g5
NtRp2736
(dp2737
g19
I1
sg10
I0
sg11
S'Indicate the root directory of the mkl_cpardiso installation'
p2738
sg13
S'with-mkl_cpardiso-dir'
p2739
sg8
I00
sbsS'with-boost'
p2740
g3
(g4
g5
NtRp2741
(dp2742
g8
I00
sg9
I0
sg10
I0
sg11
S'Indicate if you wish to test for boost'
p2743
sg13
S'with-boost'
p2744
sbsS'with-make-exec'
p2745
g3
(g23
g5
NtRp2746
(dp2747
g8
I00
sg10
I00
sg11
S'Make executable to look for'
p2748
sg13
S'with-make-exec'
p2749
sbsS'download-trilinos-commit'
p2750
g3
(g95
g5
NtRp2751
(dp2752
g11
S'The commit id from a git repository to use for the buildTrilinos'
p2753
sg8
I00
sg9
I0
sg13
S'download-trilinos-commit'
p2754
sg100
Nsg10
I0
sbsS'with-elemental-lib'
p2755
g3
(g112
g5
NtRp2756
(dp2757
g19
I1
sg10
I0
sg11
S'Indicate the elemental libraries'
p2758
sg13
S'with-elemental-lib'
p2759
sg8
I00
sbsS'with-chombo'
p2760
g3
(g4
g5
NtRp2761
(dp2762
g8
I00
sg9
I0
sg10
I0
sg11
S'Indicate if you wish to test for Chombo'
p2763
sg13
S'with-chombo'
p2764
sbsS'with-mpi-compilers'
p2765
g3
(g4
g5
NtRp2766
(dp2767
g8
I00
sg9
I1
sg10
I0
sg11
S'Try to use the MPI compilers, e.g. mpicc'
p2768
sg13
S'with-mpi-compilers'
p2769
sbsS'with-sprng-include'
p2770
g3
(g16
g5
NtRp2771
(dp2772
g19
I1
sg10
I0
sg11
S'Indicate the directory of the sprng include files'
p2773
sg13
S'with-sprng-include'
p2774
sg8
I00
sbsS'with-tetgen'
p2775
g3
(g4
g5
NtRp2776
(dp2777
g8
I00
sg9
I0
sg10
I0
sg11
S'Indicate if you wish to test for tetgen'
p2778
sg13
S'with-tetgen'
p2779
sbsS'with-cgns'
p2780
g3
(g4
g5
NtRp2781
(dp2782
g8
I00
sg9
I0
sg10
I0
sg11
S'Indicate if you wish to test for cgns'
p2783
sg13
S'with-cgns'
p2784
sbsS'download-pragmatic-cmake-arguments'
p2785
g3
(g95
g5
NtRp2786
(dp2787
g11
S'Additional CMake arguments for the buildpragmatic'
p2788
sg8
I00
sg9
I0
sg13
S'download-pragmatic-cmake-arguments'
p2789
sg100
Nsg10
I0
sbsS'with-valgrind-pkg-config'
p2790
g3
(g23
g5
NtRp2791
(dp2792
g8
I00
sg10
I00
sg11
S'Look for valgrind using pkg-config utility optional directory to look in'
p2793
sg13
S'with-valgrind-pkg-config'
p2794
sbsS'debugLevel'
p2795
g3
(g668
g5
NtRp2796
(dp2797
g11
S'Integer 0 to 4, where a higher level means more detail'
p2798
sg672
I0
sg673
I5
sg9
I3
sg13
g2795
sg8
I00
sg10
I0
sbsS'download-openmpi-shared'
p2799
g3
(g4
g5
NtRp2800
(dp2801
g8
I00
sg9
I0
sg10
I0
sg11
S'Install OPENMPI with shared libraries'
p2802
sg13
S'download-openmpi-shared'
p2803
sbsS'with-sundials-lib'
p2804
g3
(g112
g5
NtRp2805
(dp2806
g19
I1
sg10
I0
sg11
S'Indicate the sundials libraries'
p2807
sg13
S'with-sundials-lib'
p2808
sg8
I00
sbsS'with-mkl_pardiso-include'
p2809
g3
(g16
g5
NtRp2810
(dp2811
g19
I1
sg10
I0
sg11
S'Indicate the directory of the mkl_pardiso include files'
p2812
sg13
S'with-mkl_pardiso-include'
p2813
sg8
I00
sbsS'with-debugger'
p2814
g3
(g23
g5
NtRp2815
(dp2816
g8
I00
sg10
I00
sg11
S'Debugger to use in PETSc'
p2817
sg13
S'with-debugger'
p2818
sbsS'with-p4est-pkg-config'
p2819
g3
(g23
g5
NtRp2820
(dp2821
g8
I00
sg10
I00
sg11
S'Look for p4est using pkg-config utility optional directory to look in'
p2822
sg13
S'with-p4est-pkg-config'
p2823
sbsS'with-ctest-exec'
p2824
g3
(g23
g5
NtRp2825
(dp2826
g8
I00
sg10
I00
sg11
S'Ctest executable to look for'
p2827
sg13
S'with-ctest-exec'
p2828
sbsS'download-spai'
p2829
g3
(g34
g5
NtRp2830
(dp2831
g8
I00
sg9
I0
sg10
I0
sg11
S'Download and install spai'
p2832
sg13
S'download-spai'
p2833
sbsS'download-numpy-configure-arguments'
p2834
g3
(g95
g5
NtRp2835
(dp2836
g11
S'Additional GNU autoconf configure arguments for the buildNumpy'
p2837
sg8
I00
sg9
I0
sg13
S'download-numpy-configure-arguments'
p2838
sg100
Nsg10
I0
sbsS'with-ml-include'
p2839
g3
(g16
g5
NtRp2840
(dp2841
g19
I1
sg10
I0
sg11
S'Indicate the directory of the ml include files'
p2842
sg13
S'with-ml-include'
p2843
sg8
I00
sbsS'download-libpng'
p2844
g3
(g34
g5
NtRp2845
(dp2846
g8
I00
sg9
I0
sg10
I0
sg11
S'Download and install libpng'
p2847
sg13
S'download-libpng'
p2848
sbsS'with-lgrind'
p2849
g3
(g4
g5
NtRp2850
(dp2851
g8
I00
sg9
I0
sg10
I0
sg11
S'Indicate if you wish to test for lgrind'
p2852
sg13
S'with-lgrind'
p2853
sbsS'with-ascem-io-include'
p2854
g3
(g16
g5
NtRp2855
(dp2856
g19
I1
sg10
I0
sg11
S'Indicate the directory of the ascem-io include files'
p2857
sg13
S'with-ascem-io-include'
p2858
sg8
I00
sbsS'download-yaml-configure-arguments'
p2859
g3
(g95
g5
NtRp2860
(dp2861
g11
S'Additional GNU autoconf configure arguments for the buildyaml'
p2862
sg8
I00
sg9
I0
sg13
S'download-yaml-configure-arguments'
p2863
sg100
Nsg10
I0
sbsS'with-revolve'
p2864
g3
(g4
g5
NtRp2865
(dp2866
g8
I00
sg9
I0
sg10
I0
sg11
S'Indicate if you wish to test for revolve'
p2867
sg13
S'with-revolve'
p2868
sbsS'with-parmetis-dir'
p2869
g3
(g169
g5
NtRp2870
(dp2871
g19
I1
sg10
I0
sg11
S'Indicate the root directory of the parmetis installation'
p2872
sg13
S'with-parmetis-dir'
p2873
sg8
I00
sbsS'download-hdf5'
p2874
g3
(g34
g5
NtRp2875
(dp2876
g8
I00
sg9
I0
sg10
I0
sg11
S'Download and install hdf5'
p2877
sg13
S'download-hdf5'
p2878
sbsS'CPPFLAGS'
p2879
g3
(g23
g5
NtRp2880
(dp2881
g8
I00
sg9
S''
sg10
I00
sg11
S'Specify the C preprocessor options'
p2882
sg13
S'CPPFLAGS'
p2883
sbsS'download-pragmatic-commit'
p2884
g3
(g95
g5
NtRp2885
(dp2886
g11
S'The commit id from a git repository to use for the buildpragmatic'
p2887
sg8
I00
sg9
I0
sg13
S'download-pragmatic-commit'
p2888
sg100
Nsg10
I0
sbsS'with-concurrencykit'
p2889
g3
(g4
g5
NtRp2890
(dp2891
g8
I00
sg9
I0
sg10
I0
sg11
S'Indicate if you wish to test for concurrencykit'
p2892
sg13
S'with-concurrencykit'
p2893
sbsS'with-lapack-lib'
p2894
g3
(g112
g5
NtRp2895
(dp2896
g19
I1
sg10
I0
sg11
S'Indicate the library(s) containing LAPACK'
p2897
sg13
S'with-lapack-lib'
p2898
sg8
I00
sbsS'download-xsdktrilinos-commit'
p2899
g3
(g95
g5
NtRp2900
(dp2901
g11
S'The commit id from a git repository to use for the buildxSDKTrilinos'
p2902
sg8
I00
sg9
I0
sg13
S'download-xsdktrilinos-commit'
p2903
sg100
Nsg10
I0
sbsS'with-gmp-include'
p2904
g3
(g16
g5
NtRp2905
(dp2906
g19
I1
sg10
I0
sg11
S'Indicate the directory of the gmp include files'
p2907
sg13
S'with-gmp-include'
p2908
sg8
I00
sbsS'with-mpe-include'
p2909
g3
(g16
g5
NtRp2910
(dp2911
g19
I1
sg10
I0
sg11
S'Indicate the directory of the mpe include files'
p2912
sg13
S'with-mpe-include'
p2913
sg8
I00
sbsS'with-matlab'
p2914
g3
(g4
g5
NtRp2915
(dp2916
g8
I00
sg9
I0
sg10
I0
sg11
S'Activate Matlab'
p2917
sg13
S'with-matlab'
p2918
sbsS'with-batch'
p2919
g3
(g4
g5
NtRp2920
(dp2921
g8
I00
sg9
I0
sg10
I0
sg11
S'Machine using cross-compilers or a batch system to submit jobs'
p2922
sg13
g2919
sbsS'download-gmp-shared'
p2923
g3
(g4
g5
NtRp2924
(dp2925
g8
I00
sg9
I0
sg10
I0
sg11
S'Install GMP with shared libraries'
p2926
sg13
S'download-gmp-shared'
p2927
sbsS'with-64-bit-indices'
p2928
g3
(g4
g5
NtRp2929
(dp2930
g8
I00
sg9
I0
sg10
I0
sg11
S'Use 64 bit integers (long long) for indexing in vectors and matrices'
p2931
sg13
S'with-64-bit-indices'
p2932
sbsS'with-cgns-dir'
p2933
g3
(g169
g5
NtRp2934
(dp2935
g19
I1
sg10
I0
sg11
S'Indicate the root directory of the cgns installation'
p2936
sg13
S'with-cgns-dir'
p2937
sg8
I00
sbsS'with-tetgen-dir'
p2938
g3
(g169
g5
NtRp2939
(dp2940
g19
I1
sg10
I0
sg11
S'Indicate the root directory of the tetgen installation'
p2941
sg13
S'with-tetgen-dir'
p2942
sg8
I00
sbsS'download-superlu_mt'
p2943
g3
(g34
g5
NtRp2944
(dp2945
g8
I00
sg9
I0
sg10
I0
sg11
S'Download and install SuperLU_MT'
p2946
sg13
S'download-superlu_mt'
p2947
sbsS'with-hdf5'
p2948
g3
(g4
g5
NtRp2949
(dp2950
g8
I00
sg9
I0
sg10
I0
sg11
S'Indicate if you wish to test for hdf5'
p2951
sg13
S'with-hdf5'
p2952
sbsS'download-ctetgen-commit'
p2953
g3
(g95
g5
NtRp2954
(dp2955
g11
S'The commit id from a git repository to use for the buildctetgen'
p2956
sg8
I00
sg9
I0
sg13
S'download-ctetgen-commit'
p2957
sg100
Nsg10
I0
sbsS'with-viennacl-include'
p2958
g3
(g16
g5
NtRp2959
(dp2960
g19
I1
sg10
I0
sg11
S'Indicate the directory of the viennacl include files'
p2961
sg13
S'with-viennacl-include'
p2962
sg8
I00
sbsS'download-viennacl'
p2963
g3
(g34
g5
NtRp2964
(dp2965
g8
I00
sg9
I0
sg10
I0
sg11
S'Download and install viennacl'
p2966
sg13
S'download-viennacl'
p2967
sbsS'with-suitesparse-pkg-config'
p2968
g3
(g23
g5
NtRp2969
(dp2970
g8
I00
sg10
I00
sg11
S'Look for SuiteSparse using pkg-config utility optional directory to look in'
p2971
sg13
S'with-suitesparse-pkg-config'
p2972
sbsS'with-netcdf-dir'
p2973
g3
(g169
g5
NtRp2974
(dp2975
g19
I1
sg10
I0
sg11
S'Indicate the root directory of the netcdf installation'
p2976
sg13
S'with-netcdf-dir'
p2977
sg8
I00
sbsS'with-zoltan-pkg-config'
p2978
g3
(g23
g5
NtRp2979
(dp2980
g8
I00
sg10
I00
sg11
S'Look for Zoltan using pkg-config utility optional directory to look in'
p2981
sg13
S'with-zoltan-pkg-config'
p2982
sbsS'download-hdf5-configure-arguments'
p2983
g3
(g95
g5
NtRp2984
(dp2985
g11
S'Additional GNU autoconf configure arguments for the buildhdf5'
p2986
sg8
I00
sg9
I0
sg13
S'download-hdf5-configure-arguments'
p2987
sg100
Nsg10
I0
sbsS'download-suitesparse-gpu'
p2988
g3
(g4
g5
NtRp2989
(dp2990
g8
I00
sg9
I0
sg10
I0
sg11
S'Install SuiteSparse to use GPUs'
p2991
sg13
S'download-suitesparse-gpu'
p2992
sbsS'download-chombo-commit'
p2993
g3
(g95
g5
NtRp2994
(dp2995
g11
S'The commit id from a git repository to use for the buildChombo'
p2996
sg8
I00
sg9
I0
sg13
S'download-chombo-commit'
p2997
sg100
Nsg10
I0
sbsS'download-ctetgen-configure-arguments'
p2998
g3
(g95
g5
NtRp2999
(dp3000
g11
S'Additional GNU autoconf configure arguments for the buildctetgen'
p3001
sg8
I00
sg9
I0
sg13
S'download-ctetgen-configure-arguments'
p3002
sg100
Nsg10
I0
sbsS'with-mumps'
p3003
g3
(g4
g5
NtRp3004
(dp3005
g8
I00
sg9
I0
sg10
I0
sg11
S'Indicate if you wish to test for MUMPS'
p3006
sg13
S'with-mumps'
p3007
sbsS'with-mpi-dir'
p3008
g3
(g169
g5
NtRp3009
(dp3010
g19
I1
sg10
I0
sg11
S'Indicate the root directory of the MPI installation'
p3011
sg13
S'with-mpi-dir'
p3012
sg8
I00
sbsS'download-petsc4py'
p3013
g3
(g34
g5
NtRp3014
(dp3015
g8
I00
sg9
I0
sg10
I0
sg11
S'Download and install petsc4py'
p3016
sg13
S'download-petsc4py'
p3017
sbsS'download-elemental-shared'
p3018
g3
(g4
g5
NtRp3019
(dp3020
g8
I00
sg9
I0
sg10
I0
sg11
S'Install ELEMENTAL with shared libraries'
p3021
sg13
S'download-elemental-shared'
p3022
sbsS'with-numpy-lib'
p3023
g3
(g112
g5
NtRp3024
(dp3025
g19
I1
sg10
I0
sg11
S'Indicate the Numpy libraries'
p3026
sg13
S'with-numpy-lib'
p3027
sg8
I00
sbsS'with-pami-dir'
p3028
g3
(g169
g5
NtRp3029
(dp3030
g19
I1
sg10
I0
sg11
S'Indicate the root directory of the pami installation'
p3031
sg13
S'with-pami-dir'
p3032
sg8
I00
sbsS'known-level1-dcache-size'
p3033
g3
(g668
g5
NtRp3034
(dp3035
g11
S'Size in bytes of Level 1 data cache'
p3036
sg672
I16
sg673
I2147483647
sg13
S'known-level1-dcache-size'
p3037
sg8
I00
sg10
I0
sbsS'download-suitesparse'
p3038
g3
(g34
g5
NtRp3039
(dp3040
g8
I00
sg9
I0
sg10
I0
sg11
S'Download and install SuiteSparse'
p3041
sg13
S'download-suitesparse'
p3042
sbsS'download-boost'
p3043
g3
(g34
g5
NtRp3044
(dp3045
g8
I00
sg9
I0
sg10
I0
sg11
S'Download and install boost'
p3046
sg13
S'download-boost'
p3047
sbsS'with-mpi-pkg-config'
p3048
g3
(g23
g5
NtRp3049
(dp3050
g8
I00
sg10
I00
sg11
S'Look for MPI using pkg-config utility optional directory to look in'
p3051
sg13
S'with-mpi-pkg-config'
p3052
sbsS'with-netcdf-lib'
p3053
g3
(g112
g5
NtRp3054
(dp3055
g19
I1
sg10
I0
sg11
S'Indicate the netcdf libraries'
p3056
sg13
S'with-netcdf-lib'
p3057
sg8
I00
sbsS'with-cuda-include'
p3058
g3
(g16
g5
NtRp3059
(dp3060
g19
I1
sg10
I0
sg11
S'Indicate the directory of the cuda include files'
p3061
sg13
S'with-cuda-include'
p3062
sg8
I00
sbsS'with-tchem-pkg-config'
p3063
g3
(g23
g5
NtRp3064
(dp3065
g8
I00
sg10
I00
sg11
S'Look for tchem using pkg-config utility optional directory to look in'
p3066
sg13
S'with-tchem-pkg-config'
p3067
sbsS'download-yaml-commit'
p3068
g3
(g95
g5
NtRp3069
(dp3070
g11
S'The commit id from a git repository to use for the buildyaml'
p3071
sg8
I00
sg9
I0
sg13
S'download-yaml-commit'
p3072
sg100
Nsg10
I0
sbsS'with-spai-dir'
p3073
g3
(g169
g5
NtRp3074
(dp3075
g19
I1
sg10
I0
sg11
S'Indicate the root directory of the spai installation'
p3076
sg13
S'with-spai-dir'
p3077
sg8
I00
sbsS'CXX'
p3078
g3
(g23
g5
NtRp3079
(dp3080
g8
I00
sg10
I00
sg11
g2424
sg13
S'CXX'
p3081
sbsS'with-superlu_mt-pkg-config'
p3082
g3
(g23
g5
NtRp3083
(dp3084
g8
I00
sg10
I00
sg11
S'Look for SuperLU_MT using pkg-config utility optional directory to look in'
p3085
sg13
S'with-superlu_mt-pkg-config'
p3086
sbsS'with-boost-dir'
p3087
g3
(g169
g5
NtRp3088
(dp3089
g19
I1
sg10
I0
sg11
S'Indicate the root directory of the boost installation'
p3090
sg13
S'with-boost-dir'
p3091
sg8
I00
sbsS'download-parmetis-commit'
p3092
g3
(g95
g5
NtRp3093
(dp3094
g11
S'The commit id from a git repository to use for the buildparmetis'
p3095
sg8
I00
sg9
I0
sg13
S'download-parmetis-commit'
p3096
sg100
Nsg10
I0
sbsS'with-fiat-include'
p3097
g3
(g16
g5
NtRp3098
(dp3099
g19
I1
sg10
I0
sg11
S'Indicate the directory of the fiat include files'
p3100
sg13
S'with-fiat-include'
p3101
sg8
I00
sbsS'with-cuda-pkg-config'
p3102
g3
(g23
g5
NtRp3103
(dp3104
g8
I00
sg10
I00
sg11
S'Look for cuda using pkg-config utility optional directory to look in'
p3105
sg13
S'with-cuda-pkg-config'
p3106
sbsS'download-concurrencykit-shared'
p3107
g3
(g4
g5
NtRp3108
(dp3109
g8
I00
sg9
I0
sg10
I0
sg11
S'Install CONCURRENCYKIT with shared libraries'
p3110
sg13
S'download-concurrencykit-shared'
p3111
sbsS'download-unittestcpp-cmake-arguments'
p3112
g3
(g95
g5
NtRp3113
(dp3114
g11
S'Additional CMake arguments for the buildunittestcpp'
p3115
sg8
I00
sg9
I0
sg13
S'download-unittestcpp-cmake-arguments'
p3116
sg100
Nsg10
I0
sbsS'CUDA_VERSION'
p3117
g3
(g23
g5
NtRp3118
(dp3119
g8
I00
sg9
g1523
sg10
I00
sg11
S'The version of the CUDA compiler'
p3120
sg13
S'CUDA_VERSION'
p3121
sbsS'download-hdf5-commit'
p3122
g3
(g95
g5
NtRp3123
(dp3124
g11
S'The commit id from a git repository to use for the buildhdf5'
p3125
sg8
I00
sg9
I0
sg13
S'download-hdf5-commit'
p3126
sg100
Nsg10
I0
sbsS'with-mathematica-lib'
p3127
g3
(g112
g5
NtRp3128
(dp3129
g19
I1
sg10
I0
sg11
S'Indicate the Mathematica libraries'
p3130
sg13
S'with-mathematica-lib'
p3131
sg8
I00
sbsS'FC_LINKER_FLAGS'
p3132
g3
(g23
g5
NtRp3133
(dp3134
g8
I00
sg9
(lp3135
sg10
I00
sg11
S'Specify the FC linker flags'
p3136
sg13
S'FC_LINKER_FLAGS'
p3137
sbsS'with-opengl-lib'
p3138
g3
(g112
g5
NtRp3139
(dp3140
g19
I1
sg10
I0
sg11
S'Indicate the opengl libraries'
p3141
sg13
S'with-opengl-lib'
p3142
sg8
I00
sbsS'download-party-commit'
p3143
g3
(g95
g5
NtRp3144
(dp3145
g11
S'The commit id from a git repository to use for the buildPARTY'
p3146
sg8
I00
sg9
I0
sg13
S'download-party-commit'
p3147
sg100
Nsg10
I0
sbsS'with-netcdf'
p3148
g3
(g4
g5
NtRp3149
(dp3150
g8
I00
sg9
I0
sg10
I0
sg11
S'Indicate if you wish to test for netcdf'
p3151
sg13
S'with-netcdf'
p3152
sbsS'download-unittestcpp-commit'
p3153
g3
(g95
g5
NtRp3154
(dp3155
g11
S'The commit id from a git repository to use for the buildunittestcpp'
p3156
sg8
I00
sg9
I0
sg13
S'download-unittestcpp-commit'
p3157
sg100
Nsg10
I0
sbsS'with-mpfr-include'
p3158
g3
(g16
g5
NtRp3159
(dp3160
g19
I1
sg10
I0
sg11
S'Indicate the directory of the mpfr include files'
p3161
sg13
S'with-mpfr-include'
p3162
sg8
I00
sbsS'with-superlu-pkg-config'
p3163
g3
(g23
g5
NtRp3164
(dp3165
g8
I00
sg10
I00
sg11
S'Look for SuperLU using pkg-config utility optional directory to look in'
p3166
sg13
S'with-superlu-pkg-config'
p3167
sbsS'download-saws'
p3168
g3
(g34
g5
NtRp3169
(dp3170
g8
I00
sg9
I0
sg10
I0
sg11
S'Download and install saws'
p3171
sg13
S'download-saws'
p3172
sbsS'with-metis'
p3173
g3
(g4
g5
NtRp3174
(dp3175
g8
I00
sg9
I0
sg10
I0
sg11
S'Indicate if you wish to test for metis'
p3176
sg13
S'with-metis'
p3177
sbsS'with-party-pkg-config'
p3178
g3
(g23
g5
NtRp3179
(dp3180
g8
I00
sg10
I00
sg11
S'Look for PARTY using pkg-config utility optional directory to look in'
p3181
sg13
S'with-party-pkg-config'
p3182
sbsS'with-mpe-pkg-config'
p3183
g3
(g23
g5
NtRp3184
(dp3185
g8
I00
sg10
I00
sg11
S'Look for mpe using pkg-config utility optional directory to look in'
p3186
sg13
S'with-mpe-pkg-config'
p3187
sbsS'download-c2html-shared'
p3188
g3
(g4
g5
NtRp3189
(dp3190
g8
I00
sg9
I0
sg10
I0
sg11
S'Install C2HTML with shared libraries'
p3191
sg13
S'download-c2html-shared'
p3192
sbsS'with-ar'
p3193
g3
(g23
g5
NtRp3194
(dp3195
g8
I00
sg10
I00
sg11
S'Specify the archiver'
p3196
sg13
S'with-ar'
p3197
sbsS'with-matlab-engine'
p3198
g3
(g4
g5
NtRp3199
(dp3200
g8
I00
sg9
I0
sg10
I0
sg11
S'Activate Matlab Engine (need --with-matlab also) '
p3201
sg13
S'with-matlab-engine'
p3202
sbsS'with-ascem-io-dir'
p3203
g3
(g169
g5
NtRp3204
(dp3205
g19
I1
sg10
I0
sg11
S'Indicate the root directory of the ascem-io installation'
p3206
sg13
S'with-ascem-io-dir'
p3207
sg8
I00
sbsS'with-cmake-lib'
p3208
g3
(g112
g5
NtRp3209
(dp3210
g19
I1
sg10
I0
sg11
S'Indicate the cmake libraries'
p3211
sg13
S'with-cmake-lib'
p3212
sg8
I00
sbsS'with-fortranlib-autodetect'
p3213
g3
(g4
g5
NtRp3214
(dp3215
g8
I00
sg9
I1
sg10
I0
sg11
S'Autodetect Fortran compiler libraries'
p3216
sg13
S'with-fortranlib-autodetect'
p3217
sbsS'download-sundials'
p3218
g3
(g34
g5
NtRp3219
(dp3220
g8
I00
sg9
I0
sg10
I0
sg11
S'Download and install sundials'
p3221
sg13
S'download-sundials'
p3222
sbsS'with-ssl-certificate'
p3223
g3
(g4
g5
NtRp3224
(dp3225
g8
I00
sg9
I0
sg10
I0
sg11
S'Require certificate with SSL'
p3226
sg13
S'with-ssl-certificate'
p3227
sbsS'with-hypre-pkg-config'
p3228
g3
(g23
g5
NtRp3229
(dp3230
g8
I00
sg10
I00
sg11
S'Look for hypre using pkg-config utility optional directory to look in'
p3231
sg13
S'with-hypre-pkg-config'
p3232
sbsS'download-hypre-configure-arguments'
p3233
g3
(g95
g5
NtRp3234
(dp3235
g11
S'Additional GNU autoconf configure arguments for the buildhypre'
p3236
sg8
I00
sg9
I0
sg13
S'download-hypre-configure-arguments'
p3237
sg100
Nsg10
I0
sbsS'with-trilinos'
p3238
g3
(g4
g5
NtRp3239
(dp3240
g8
I00
sg9
I0
sg10
I0
sg11
S'Indicate if you wish to test for Trilinos'
p3241
sg13
S'with-trilinos'
p3242
sbsS'known-mpi-shared-libraries'
p3243
g3
(g4
g5
NtRp3244
(dp3245
g8
I00
sg10
I0
sg11
S'Indicates the MPI libraries are shared (the usual test will be skipped)'
p3246
sg13
S'known-mpi-shared-libraries'
p3247
sbsS'with-spai'
p3248
g3
(g4
g5
NtRp3249
(dp3250
g8
I00
sg9
I0
sg10
I0
sg11
S'Indicate if you wish to test for spai'
p3251
sg13
S'with-spai'
p3252
sbsS'package-dirs'
p3253
g3
(g23
g5
NtRp3254
(dp3255
g8
I00
sg9
(lp3256
g178
asg10
I00
sg11
S'A list of directories used to search for packages'
p3257
sg13
g3253
sbsS'download-zoltan'
p3258
g3
(g34
g5
NtRp3259
(dp3260
g8
I00
sg9
I0
sg10
I0
sg11
S'Download and install Zoltan'
p3261
sg13
S'download-zoltan'
p3262
sbsS'with-x-dir'
p3263
g3
(g169
g5
NtRp3264
(dp3265
g19
I1
sg10
I0
sg11
S'Indicate the root directory of the X installation'
p3266
sg13
S'with-x-dir'
p3267
sg8
I00
sbsS'download-fftw-commit'
p3268
g3
(g95
g5
NtRp3269
(dp3270
g11
S'The commit id from a git repository to use for the buildfftw'
p3271
sg8
I00
sg9
I0
sg13
S'download-fftw-commit'
p3272
sg100
Nsg10
I0
sbsS'with-scientificpython'
p3273
g3
(g4
g5
NtRp3274
(dp3275
g8
I00
sg9
I0
sg10
I0
sg11
S'Indicate if you wish to test for scientificpython'
p3276
sg13
S'with-scientificpython'
p3277
sbsS'with-mpfr-lib'
p3278
g3
(g112
g5
NtRp3279
(dp3280
g19
I1
sg10
I0
sg11
S'Indicate the mpfr libraries'
p3281
sg13
S'with-mpfr-lib'
p3282
sg8
I00
sbsS'download-ptscotch'
p3283
g3
(g34
g5
NtRp3284
(dp3285
g8
I00
sg9
I0
sg10
I0
sg11
S'Download and install PTScotch'
p3286
sg13
S'download-ptscotch'
p3287
sbsS'download-mpfr-shared'
p3288
g3
(g4
g5
NtRp3289
(dp3290
g8
I00
sg9
I0
sg10
I0
sg11
S'Install MPFR with shared libraries'
p3291
sg13
S'download-mpfr-shared'
p3292
sbsS'with-mpfr-dir'
p3293
g3
(g169
g5
NtRp3294
(dp3295
g19
I1
sg10
I0
sg11
S'Indicate the root directory of the mpfr installation'
p3296
sg13
S'with-mpfr-dir'
p3297
sg8
I00
sbsS'download-cmake-cc'
p3298
g3
(g23
g5
NtRp3299
(dp3300
g8
I00
sg10
I00
sg11
S'C compiler for Cmake configure'
p3301
sg13
S'download-cmake-cc'
p3302
sbsS'with-x'
p3303
g3
(g4
g5
NtRp3304
(dp3305
g8
I00
sg9
I1
sg10
I0
sg11
S'Indicate if you wish to test for X'
p3306
sg13
S'with-x'
p3307
sbsS'with-parms-lib'
p3308
g3
(g112
g5
NtRp3309
(dp3310
g19
I1
sg10
I0
sg11
S'Indicate the pARMS libraries'
p3311
sg13
S'with-parms-lib'
p3312
sg8
I00
sbsS'with-fiat-pkg-config'
p3313
g3
(g23
g5
NtRp3314
(dp3315
g8
I00
sg10
I00
sg11
S'Look for fiat using pkg-config utility optional directory to look in'
p3316
sg13
S'with-fiat-pkg-config'
p3317
sbsS'download-sowing'
p3318
g3
(g34
g5
NtRp3319
(dp3320
g8
I00
sg9
I0
sg10
I0
sg11
S'Download and install sowing'
p3321
sg13
S'download-sowing'
p3322
sbsS'with-windows-graphics'
p3323
g3
(g4
g5
NtRp3324
(dp3325
g8
I00
sg9
I1
sg10
I0
sg11
S'Enable check for Windows Graphics'
p3326
sg13
S'with-windows-graphics'
p3327
sbsS'download-mumps'
p3328
g3
(g34
g5
NtRp3329
(dp3330
g8
I00
sg9
I0
sg10
I0
sg11
S'Download and install MUMPS'
p3331
sg13
S'download-mumps'
p3332
sbsS'with-fftw'
p3333
g3
(g4
g5
NtRp3334
(dp3335
g8
I00
sg9
I0
sg10
I0
sg11
S'Indicate if you wish to test for fftw'
p3336
sg13
S'with-fftw'
p3337
sbsS'with-giflib-pkg-config'
p3338
g3
(g23
g5
NtRp3339
(dp3340
g8
I00
sg10
I00
sg11
S'Look for giflib using pkg-config utility optional directory to look in'
p3341
sg13
S'with-giflib-pkg-config'
p3342
sbsS'with-c2html-pkg-config'
p3343
g3
(g23
g5
NtRp3344
(dp3345
g8
I00
sg10
I00
sg11
S'Look for c2html using pkg-config utility optional directory to look in'
p3346
sg13
S'with-c2html-pkg-config'
p3347
sbsS'with-cuda-lib'
p3348
g3
(g112
g5
NtRp3349
(dp3350
g19
I1
sg10
I0
sg11
S'Indicate the cuda libraries'
p3351
sg13
S'with-cuda-lib'
p3352
sg8
I00
sbsS'with-hwloc-lib'
p3353
g3
(g112
g5
NtRp3354
(dp3355
g19
I1
sg10
I0
sg11
S'Indicate the hwloc libraries'
p3356
sg13
S'with-hwloc-lib'
p3357
sg8
I00
sbsS'download-cmake-configure-options'
p3358
g3
(g23
g5
NtRp3359
(dp3360
g8
I00
sg10
I00
sg11
S'Additional options for Cmake configure'
p3361
sg13
S'download-cmake-configure-options'
p3362
sbsS'with-papi'
p3363
g3
(g4
g5
NtRp3364
(dp3365
g8
I00
sg9
I0
sg10
I0
sg11
S'Indicate if you wish to test for papi'
p3366
sg13
S'with-papi'
p3367
sbsS'with-ios'
p3368
g3
(g4
g5
NtRp3369
(dp3370
g8
I00
sg9
I0
sg10
I0
sg11
S'Build an iPhone/iPad version of PETSc library'
p3371
sg13
S'with-ios'
p3372
sbsS'download-hypre-shared'
p3373
g3
(g4
g5
NtRp3374
(dp3375
g8
I00
sg9
I0
sg10
I0
sg11
S'Install HYPRE with shared libraries'
p3376
sg13
S'download-hypre-shared'
p3377
sbsS'with-concurrencykit-pkg-config'
p3378
g3
(g23
g5
NtRp3379
(dp3380
g8
I00
sg10
I00
sg11
S'Look for concurrencykit using pkg-config utility optional directory to look in'
p3381
sg13
S'with-concurrencykit-pkg-config'
p3382
sbsS'with-mpfr-pkg-config'
p3383
g3
(g23
g5
NtRp3384
(dp3385
g8
I00
sg10
I00
sg11
S'Look for mpfr using pkg-config utility optional directory to look in'
p3386
sg13
S'with-mpfr-pkg-config'
p3387
sbsS'download-alquimia'
p3388
g3
(g34
g5
NtRp3389
(dp3390
g8
I00
sg9
I0
sg10
I0
sg11
S'Download and install alquimia'
p3391
sg13
S'download-alquimia'
p3392
sbsS'with-fftw-lib'
p3393
g3
(g112
g5
NtRp3394
(dp3395
g19
I1
sg10
I0
sg11
S'Indicate the fftw libraries'
p3396
sg13
S'with-fftw-lib'
p3397
sg8
I00
sbsS'with-make-include'
p3398
g3
(g16
g5
NtRp3399
(dp3400
g19
I1
sg10
I0
sg11
S'Indicate the directory of the make include files'
p3401
sg13
S'with-make-include'
p3402
sg8
I00
sbsS'with-fftw-dir'
p3403
g3
(g169
g5
NtRp3404
(dp3405
g19
I1
sg10
I0
sg11
S'Indicate the root directory of the fftw installation'
p3406
sg13
S'with-fftw-dir'
p3407
sg8
I00
sbsS'with-mstk'
p3408
g3
(g4
g5
NtRp3409
(dp3410
g8
I00
sg9
I0
sg10
I0
sg11
S'Indicate if you wish to test for mstk'
p3411
sg13
S'with-mstk'
p3412
sbsS'log'
p3413
g3
(g23
g5
NtRp3414
(dp3415
g8
I00
sg9
S'build.log'
p3416
sg10
I00
sg11
S'The filename for the log'
p3417
sg13
g3413
sbsS'with-xsdk-defaults'
p3418
g3
(g4
g5
NtRp3419
(dp3420
g8
I00
sg9
I0
sg10
I0
sg11
S'Set the following as defaults for the xSDK standard: --enable-debug=1, --enable-shared=1, --with-precision=double, --with-index-size=32, locate blas/lapack automatically'
p3421
sg13
S'with-xsdk-defaults'
p3422
sbsS'with-papi-lib'
p3423
g3
(g112
g5
NtRp3424
(dp3425
g19
I1
sg10
I0
sg11
S'Indicate the papi libraries'
p3426
sg13
S'with-papi-lib'
p3427
sg8
I00
sbsS'download-alquimia-shared'
p3428
g3
(g4
g5
NtRp3429
(dp3430
g8
I00
sg9
I0
sg10
I0
sg11
S'Install ALQUIMIA with shared libraries'
p3431
sg13
S'download-alquimia-shared'
p3432
sbsS'with-ascem-io-pkg-config'
p3433
g3
(g23
g5
NtRp3434
(dp3435
g8
I00
sg10
I00
sg11
S'Look for ascem-io using pkg-config utility optional directory to look in'
p3436
sg13
S'with-ascem-io-pkg-config'
p3437
sbsS'with-libpng-dir'
p3438
g3
(g169
g5
NtRp3439
(dp3440
g19
I1
sg10
I0
sg11
S'Indicate the root directory of the libpng installation'
p3441
sg13
S'with-libpng-dir'
p3442
sg8
I00
sbsS'download-libpng-configure-arguments'
p3443
g3
(g95
g5
NtRp3444
(dp3445
g11
S'Additional GNU autoconf configure arguments for the buildlibpng'
p3446
sg8
I00
sg9
I0
sg13
S'download-libpng-configure-arguments'
p3447
sg100
Nsg10
I0
sbsS'with-mumps-include'
p3448
g3
(g16
g5
NtRp3449
(dp3450
g19
I1
sg10
I0
sg11
S'Indicate the directory of the MUMPS include files'
p3451
sg13
S'with-mumps-include'
p3452
sg8
I00
sbsS'with-mpfr'
p3453
g3
(g4
g5
NtRp3454
(dp3455
g8
I00
sg9
I0
sg10
I0
sg11
S'Indicate if you wish to test for mpfr'
p3456
sg13
S'with-mpfr'
p3457
sbsS'with-clanguage'
p3458
g3
(g23
g5
NtRp3459
(dp3460
g8
I00
sg9
S'C'
sg10
I00
sg11
S'Specify C (recommended) or C++ to compile PETSc. You can use C++ in either case.'
p3461
sg13
S'with-clanguage'
p3462
sbsS'download-concurrencykit-commit'
p3463
g3
(g95
g5
NtRp3464
(dp3465
g11
S'The commit id from a git repository to use for the buildconcurrencykit'
p3466
sg8
I00
sg9
I0
sg13
S'download-concurrencykit-commit'
p3467
sg100
Nsg10
I0
sbsS'download-pflotran-commit'
p3468
g3
(g95
g5
NtRp3469
(dp3470
g11
S'The commit id from a git repository to use for the buildpflotran'
p3471
sg8
I00
sg9
I0
sg13
S'download-pflotran-commit'
p3472
sg100
Nsg10
I0
sbsS'with-spai-pkg-config'
p3473
g3
(g23
g5
NtRp3474
(dp3475
g8
I00
sg10
I00
sg11
S'Look for spai using pkg-config utility optional directory to look in'
p3476
sg13
S'with-spai-pkg-config'
p3477
sbsS'download-gmp'
p3478
g3
(g34
g5
NtRp3479
(dp3480
g8
I00
sg9
I0
sg10
I0
sg11
S'Download and install gmp'
p3481
sg13
S'download-gmp'
p3482
sbsS'with-scalapack'
p3483
g3
(g4
g5
NtRp3484
(dp3485
g8
I00
sg9
I0
sg10
I0
sg11
S'Indicate if you wish to test for scalapack'
p3486
sg13
S'with-scalapack'
p3487
sbsS'with-hdf5-dir'
p3488
g3
(g169
g5
NtRp3489
(dp3490
g19
I1
sg10
I0
sg11
S'Indicate the root directory of the hdf5 installation'
p3491
sg13
S'with-hdf5-dir'
p3492
sg8
I00
sbsS'with-opengles'
p3493
g3
(g4
g5
NtRp3494
(dp3495
g8
I00
sg9
I0
sg10
I0
sg11
S'Indicate if you wish to test for opengles'
p3496
sg13
S'with-opengles'
p3497
sbsS'download-pragmatic'
p3498
g3
(g34
g5
NtRp3499
(dp3500
g8
I00
sg9
I0
sg10
I0
sg11
S'Download and install pragmatic'
p3501
sg13
S'download-pragmatic'
p3502
sbsS'with-mathematica-pkg-config'
p3503
g3
(g23
g5
NtRp3504
(dp3505
g8
I00
sg10
I00
sg11
S'Look for Mathematica using pkg-config utility optional directory to look in'
p3506
sg13
S'with-mathematica-pkg-config'
p3507
sbsS'with-parms-dir'
p3508
g3
(g169
g5
NtRp3509
(dp3510
g19
I1
sg10
I0
sg11
S'Indicate the root directory of the pARMS installation'
p3511
sg13
S'with-parms-dir'
p3512
sg8
I00
sbsS'download-gmp-configure-arguments'
p3513
g3
(g95
g5
NtRp3514
(dp3515
g11
S'Additional GNU autoconf configure arguments for the buildgmp'
p3516
sg8
I00
sg9
I0
sg13
S'download-gmp-configure-arguments'
p3517
sg100
Nsg10
I0
sbsS'known-level1-dcache-linesize'
p3518
g3
(g668
g5
NtRp3519
(dp3520
g11
S'Size in bytes of each line of the Level 1 data cache'
p3521
sg672
I16
sg673
I2147483647
sg13
S'known-level1-dcache-linesize'
p3522
sg8
I00
sg10
I0
sbsS'download-sowing-commit'
p3523
g3
(g95
g5
NtRp3524
(dp3525
g11
S'The commit id from a git repository to use for the buildsowing'
p3526
sg8
I00
sg9
I0
sg13
S'download-sowing-commit'
p3527
sg100
Nsg10
I0
sbsS'with-libpng-lib'
p3528
g3
(g112
g5
NtRp3529
(dp3530
g19
I1
sg10
I0
sg11
S'Indicate the libpng libraries'
p3531
sg13
S'with-libpng-lib'
p3532
sg8
I00
sbsS'with-x-pkg-config'
p3533
g3
(g23
g5
NtRp3534
(dp3535
g8
I00
sg10
I00
sg11
S'Look for X using pkg-config utility optional directory to look in'
p3536
sg13
S'with-x-pkg-config'
p3537
sbsS'with-unittestcpp'
p3538
g3
(g4
g5
NtRp3539
(dp3540
g8
I00
sg9
I0
sg10
I0
sg11
S'Indicate if you wish to test for unittestcpp'
p3541
sg13
S'with-unittestcpp'
p3542
sbsS'download-openmpi-configure-arguments'
p3543
g3
(g95
g5
NtRp3544
(dp3545
g11
S'Additional GNU autoconf configure arguments for the buildOpenMPI'
p3546
sg8
I00
sg9
I0
sg13
S'download-openmpi-configure-arguments'
p3547
sg100
Nsg10
I0
sbsS'with-cmake'
p3548
g3
(g4
g5
NtRp3549
(dp3550
g8
I00
sg9
I1
sg10
I0
sg11
S'Indicate if you wish to test for cmake'
p3551
sg13
S'with-cmake'
p3552
sbsS'with-cgns-lib'
p3553
g3
(g112
g5
NtRp3554
(dp3555
g19
I1
sg10
I0
sg11
S'Indicate the cgns libraries'
p3556
sg13
S'with-cgns-lib'
p3557
sg8
I00
sbsS'with-tetgen-lib'
p3558
g3
(g112
g5
NtRp3559
(dp3560
g19
I1
sg10
I0
sg11
S'Indicate the tetgen libraries'
p3561
sg13
S'with-tetgen-lib'
p3562
sg8
I00
sbsS'with-triangle-dir'
p3563
g3
(g169
g5
NtRp3564
(dp3565
g19
I1
sg10
I0
sg11
S'Indicate the root directory of the Triangle installation'
p3566
sg13
S'with-triangle-dir'
p3567
sg8
I00
sbsS'with-triangle-include'
p3568
g3
(g16
g5
NtRp3569
(dp3570
g19
I1
sg10
I0
sg11
S'Indicate the directory of the Triangle include files'
p3571
sg13
S'with-triangle-include'
p3572
sg8
I00
sbsS'download-ascem-io-commit'
p3573
g3
(g95
g5
NtRp3574
(dp3575
g11
S'The commit id from a git repository to use for the buildascem-io'
p3576
sg8
I00
sg9
I0
sg13
S'download-ascem-io-commit'
p3577
sg100
Nsg10
I0
sbsS'with-metis-pkg-config'
p3578
g3
(g23
g5
NtRp3579
(dp3580
g8
I00
sg10
I00
sg11
S'Look for metis using pkg-config utility optional directory to look in'
p3581
sg13
S'with-metis-pkg-config'
p3582
sbsS'with-hg'
p3583
g3
(g23
g5
NtRp3584
(dp3585
g8
I00
sg9
S'hg'
p3586
sg10
I00
sg11
S'Specify the Mercurial executable'
p3587
sg13
S'with-hg'
p3588
sbsS'download-sowing-cc'
p3589
g3
(g23
g5
NtRp3590
(dp3591
g8
I00
sg10
I00
sg11
S'C compiler for sowing configure'
p3592
sg13
S'download-sowing-cc'
p3593
sbsS'with-numpy-include'
p3594
g3
(g16
g5
NtRp3595
(dp3596
g19
I1
sg10
I0
sg11
S'Indicate the directory of the Numpy include files'
p3597
sg13
S'with-numpy-include'
p3598
sg8
I00
sbsS'with-sowing-lib'
p3599
g3
(g112
g5
NtRp3600
(dp3601
g19
I1
sg10
I0
sg11
S'Indicate the sowing libraries'
p3602
sg13
S'with-sowing-lib'
p3603
sg8
I00
sbsS'download-yaml'
p3604
g3
(g34
g5
NtRp3605
(dp3606
g8
I00
sg9
I0
sg10
I0
sg11
S'Download and install yaml'
p3607
sg13
S'download-yaml'
p3608
sbsS'download-sowing-cpp'
p3609
g3
(g23
g5
NtRp3610
(dp3611
g8
I00
sg10
I00
sg11
S'CPP for sowing configure'
p3612
sg13
S'download-sowing-cpp'
p3613
sbsS'with-mkl_cpardiso'
p3614
g3
(g4
g5
NtRp3615
(dp3616
g8
I00
sg9
I0
sg10
I0
sg11
S'Indicate if you wish to test for mkl_cpardiso'
p3617
sg13
S'with-mkl_cpardiso'
p3618
sbsS'download-amanzi-commit'
p3619
g3
(g95
g5
NtRp3620
(dp3621
g11
S'The commit id from a git repository to use for the buildamanzi'
p3622
sg8
I00
sg9
I0
sg13
S'download-amanzi-commit'
p3623
sg100
Nsg10
I0
sbsS'with-libpng'
p3624
g3
(g4
g5
NtRp3625
(dp3626
g8
I00
sg9
I0
sg10
I0
sg11
S'Indicate if you wish to test for libpng'
p3627
sg13
S'with-libpng'
p3628
sbsS'with-autoreconf'
p3629
g3
(g23
g5
NtRp3630
(dp3631
g8
I00
sg9
S'autoreconf'
p3632
sg10
I00
sg11
S'Specify autoreconf'
p3633
sg13
S'with-autoreconf'
p3634
sbsS'debugSections'
p3635
g3
(g23
g5
NtRp3636
(dp3637
g8
I00
sg9
(lp3638
S'screen'
p3639
asg10
I00
sg11
S'Message types to print, e.g. [compile,link,hg,install]'
p3640
sg13
g3635
sbsS'with-metis-dir'
p3641
g3
(g169
g5
NtRp3642
(dp3643
g19
I1
sg10
I0
sg11
S'Indicate the root directory of the metis installation'
p3644
sg13
S'with-metis-dir'
p3645
sg8
I00
sbsS'download-hwloc-configure-arguments'
p3646
g3
(g95
g5
NtRp3647
(dp3648
g11
S'Additional GNU autoconf configure arguments for the buildhwloc'
p3649
sg8
I00
sg9
I0
sg13
S'download-hwloc-configure-arguments'
p3650
sg100
Nsg10
I0
sbsS'with-revolve-pkg-config'
p3651
g3
(g23
g5
NtRp3652
(dp3653
g8
I00
sg10
I00
sg11
S'Look for revolve using pkg-config utility optional directory to look in'
p3654
sg13
S'with-revolve-pkg-config'
p3655
sbsS'with-ctetgen-dir'
p3656
g3
(g169
g5
NtRp3657
(dp3658
g19
I1
sg10
I0
sg11
S'Indicate the root directory of the ctetgen installation'
p3659
sg13
S'with-ctetgen-dir'
p3660
sg8
I00
sbsS'CUDAPP'
p3661
g3
(g23
g5
NtRp3662
(dp3663
g8
I00
sg10
I00
sg11
S'Specify the CUDA preprocessor'
p3664
sg13
S'CUDAPP'
p3665
sbsS'with-ptscotch-pkg-config'
p3666
g3
(g23
g5
NtRp3667
(dp3668
g8
I00
sg10
I00
sg11
S'Look for PTScotch using pkg-config utility optional directory to look in'
p3669
sg13
S'with-ptscotch-pkg-config'
p3670
sbsS'download-pastix-commit'
p3671
g3
(g95
g5
NtRp3672
(dp3673
g11
S'The commit id from a git repository to use for the buildPaStiX'
p3674
sg8
I00
sg9
I0
sg13
S'download-pastix-commit'
p3675
sg100
Nsg10
I0
sbsS'with-valgrind-dir'
p3676
g3
(g169
g5
NtRp3677
(dp3678
g19
I1
sg10
I0
sg11
S'Indicate the root directory of the valgrind installation'
p3679
sg13
S'with-valgrind-dir'
p3680
sg8
I00
sbsS'download-exodusii-commit'
p3681
g3
(g95
g5
NtRp3682
(dp3683
g11
S'The commit id from a git repository to use for the buildexodusii'
p3684
sg8
I00
sg9
I0
sg13
S'download-exodusii-commit'
p3685
sg100
Nsg10
I0
sbsS'download-ml-commit'
p3686
g3
(g95
g5
NtRp3687
(dp3688
g11
S'The commit id from a git repository to use for the buildml'
p3689
sg8
I00
sg9
I0
sg13
S'download-ml-commit'
p3690
sg100
Nsg10
I0
sbsS'download-mstk-commit'
p3691
g3
(g95
g5
NtRp3692
(dp3693
g11
S'The commit id from a git repository to use for the buildmstk'
p3694
sg8
I00
sg9
I0
sg13
S'download-mstk-commit'
p3695
sg100
Nsg10
I0
sbsS'noOutput'
p3696
g3
(g4
g5
NtRp3697
(dp3698
g8
I00
sg9
I0
sg10
I0
sg11
S'Flag to suppress output to the terminal'
p3699
sg13
g3696
sbsS'with-chaco-pkg-config'
p3700
g3
(g23
g5
NtRp3701
(dp3702
g8
I00
sg10
I00
sg11
S'Look for Chaco using pkg-config utility optional directory to look in'
p3703
sg13
S'with-chaco-pkg-config'
p3704
sbsS'with-pastix-pkg-config'
p3705
g3
(g23
g5
NtRp3706
(dp3707
g8
I00
sg10
I00
sg11
S'Look for PaStiX using pkg-config utility optional directory to look in'
p3708
sg13
S'with-pastix-pkg-config'
p3709
sbsS'with-xsdktrilinos-dir'
p3710
g3
(g169
g5
NtRp3711
(dp3712
g19
I1
sg10
I0
sg11
S'Indicate the root directory of the xSDKTrilinos installation'
p3713
sg13
S'with-xsdktrilinos-dir'
p3714
sg8
I00
sbsS'with-mkl_cpardiso-pkg-config'
p3715
g3
(g23
g5
NtRp3716
(dp3717
g8
I00
sg10
I00
sg11
S'Look for mkl_cpardiso using pkg-config utility optional directory to look in'
p3718
sg13
S'with-mkl_cpardiso-pkg-config'
p3719
sbsS'with-triangle-lib'
p3720
g3
(g112
g5
NtRp3721
(dp3722
g19
I1
sg10
I0
sg11
S'Indicate the Triangle libraries'
p3723
sg13
S'with-triangle-lib'
p3724
sg8
I00
sbsS'with-scientificpython-lib'
p3725
g3
(g112
g5
NtRp3726
(dp3727
g19
I1
sg10
I0
sg11
S'Indicate the scientificpython libraries'
p3728
sg13
S'with-scientificpython-lib'
p3729
sg8
I00
sbsS'CFLAGS'
p3730
g3
(g23
g5
NtRp3731
(dp3732
g8
I00
sg10
I00
sg11
S'Specify the C compiler options'
p3733
sg13
S'CFLAGS'
p3734
sbsS'download-superlu_dist-shared'
p3735
g3
(g4
g5
NtRp3736
(dp3737
g8
I00
sg9
I0
sg10
I0
sg11
S'Install SUPERLU_DIST with shared libraries'
p3738
sg13
S'download-superlu_dist-shared'
p3739
sbsS'download-mpfr'
p3740
g3
(g34
g5
NtRp3741
(dp3742
g8
I00
sg9
I0
sg10
I0
sg11
S'Download and install mpfr'
p3743
sg13
S'download-mpfr'
p3744
sbsS'with-xsdktrilinos-lib'
p3745
g3
(g112
g5
NtRp3746
(dp3747
g19
I1
sg10
I0
sg11
S'Indicate the xSDKTrilinos libraries'
p3748
sg13
S'with-xsdktrilinos-lib'
p3749
sg8
I00
sbsS'with-pthread-dir'
p3750
g3
(g169
g5
NtRp3751
(dp3752
g19
I1
sg10
I0
sg11
S'Indicate the root directory of the pthread installation'
p3753
sg13
S'with-pthread-dir'
p3754
sg8
I00
sbsS'AR'
p3755
g3
(g23
g5
NtRp3756
(dp3757
g8
I00
sg10
I00
sg11
g1344
sg13
S'AR'
p3758
sbsS'with-superlu_mt-include'
p3759
g3
(g16
g5
NtRp3760
(dp3761
g19
I1
sg10
I0
sg11
S'Indicate the directory of the SuperLU_MT include files'
p3762
sg13
S'with-superlu_mt-include'
p3763
sg8
I00
sbsS'dynamicLibraryFlags'
p3764
g3
(g23
g5
NtRp3765
(dp3766
g8
I00
sg9
(lp3767
sg10
I00
sg11
S'Specify the dynamic library flags'
p3768
sg13
S'dynamicLibraryFlags'
p3769
sbsS'download-fblaslapack'
p3770
g3
(g34
g5
NtRp3771
(dp3772
g8
I00
sg9
I0
sg10
I0
sg11
S'Download and install fblaslapack'
p3773
sg13
S'download-fblaslapack'
p3774
sbsS'with-make-lib'
p3775
g3
(g112
g5
NtRp3776
(dp3777
g19
I1
sg10
I0
sg11
S'Indicate the make libraries'
p3778
sg13
S'with-make-lib'
p3779
sg8
I00
sbsS'with-pragmatic-lib'
p3780
g3
(g112
g5
NtRp3781
(dp3782
g19
I1
sg10
I0
sg11
S'Indicate the pragmatic libraries'
p3783
sg13
S'with-pragmatic-lib'
p3784
sg8
I00
sbsS'with-pthread-pkg-config'
p3785
g3
(g23
g5
NtRp3786
(dp3787
g8
I00
sg10
I00
sg11
S'Look for pthread using pkg-config utility optional directory to look in'
p3788
sg13
S'with-pthread-pkg-config'
p3789
sbsS'download-trilinos-cmake-arguments'
p3790
g3
(g95
g5
NtRp3791
(dp3792
g11
S'Additional CMake arguments for the buildTrilinos'
p3793
sg8
I00
sg9
I0
sg13
S'download-trilinos-cmake-arguments'
p3794
sg100
Nsg10
I0
sbsS'download-mpich-configure-arguments'
p3795
g3
(g95
g5
NtRp3796
(dp3797
g11
S'Additional GNU autoconf configure arguments for the buildMPICH'
p3798
sg8
I00
sg9
I0
sg13
S'download-mpich-configure-arguments'
p3799
sg100
Nsg10
I0
sbsS'with-cmake-pkg-config'
p3800
g3
(g23
g5
NtRp3801
(dp3802
g8
I00
sg10
I00
sg11
S'Look for cmake using pkg-config utility optional directory to look in'
p3803
sg13
S'with-cmake-pkg-config'
p3804
sbsS'with-pthread-lib'
p3805
g3
(g112
g5
NtRp3806
(dp3807
g19
I1
sg10
I0
sg11
S'Indicate the pthread libraries'
p3808
sg13
S'with-pthread-lib'
p3809
sg8
I00
sbsS'download-chombo-dimension'
p3810
g3
(g668
g5
NtRp3811
(dp3812
g11
S'Install Chombo to work in this space dimension'
p3813
sg672
L-2147483647L
sg673
L2147483648L
sg9
I2
sg13
S'download-chombo-dimension'
p3814
sg8
I00
sg10
I0
sbsS'with-yaml-pkg-config'
p3815
g3
(g23
g5
NtRp3816
(dp3817
g8
I00
sg10
I00
sg11
S'Look for yaml using pkg-config utility optional directory to look in'
p3818
sg13
S'with-yaml-pkg-config'
p3819
sbsS'with-hdf5-lib'
p3820
g3
(g112
g5
NtRp3821
(dp3822
g19
I1
sg10
I0
sg11
S'Indicate the hdf5 libraries'
p3823
sg13
S'with-hdf5-lib'
p3824
sg8
I00
sbsS'with-glut'
p3825
g3
(g4
g5
NtRp3826
(dp3827
g8
I00
sg9
I0
sg10
I0
sg11
S'Indicate if you wish to test for glut'
p3828
sg13
S'with-glut'
p3829
sbsS'LD_SHARED'
p3830
g3
(g23
g5
NtRp3831
(dp3832
g8
I00
sg10
I00
sg11
g1449
sg13
S'LD_SHARED'
p3833
sbsS'with-mkl_pardiso'
p3834
g3
(g4
g5
NtRp3835
(dp3836
g8
I00
sg9
I0
sg10
I0
sg11
S'Indicate if you wish to test for mkl_pardiso'
p3837
sg13
S'with-mkl_pardiso'
p3838
sbsS'with-concurrencykit-dir'
p3839
g3
(g169
g5
NtRp3840
(dp3841
g19
I1
sg10
I0
sg11
S'Indicate the root directory of the concurrencykit installation'
p3842
sg13
S'with-concurrencykit-dir'
p3843
sg8
I00
sbsS'download-elemental-cmake-arguments'
p3844
g3
(g95
g5
NtRp3845
(dp3846
g11
S'Additional CMake arguments for the buildelemental'
p3847
sg8
I00
sg9
I0
sg13
S'download-elemental-cmake-arguments'
p3848
sg100
Nsg10
I0
sbsS'download-sowing-configure-options'
p3849
g3
(g23
g5
NtRp3850
(dp3851
g8
I00
sg10
I00
sg11
S'additional options for sowing configure'
p3852
sg13
S'download-sowing-configure-options'
p3853
sbsS'download-make'
p3854
g3
(g34
g5
NtRp3855
(dp3856
g8
I00
sg9
I0
sg10
I0
sg11
S'Download and install make'
p3857
sg13
S'download-make'
p3858
sbsS'download-c2html-commit'
p3859
g3
(g95
g5
NtRp3860
(dp3861
g11
S'The commit id from a git repository to use for the buildc2html'
p3862
sg8
I00
sg9
I0
sg13
S'download-c2html-commit'
p3863
sg100
Nsg10
I0
sbsS'with-sundials-dir'
p3864
g3
(g169
g5
NtRp3865
(dp3866
g19
I1
sg10
I0
sg11
S'Indicate the root directory of the sundials installation'
p3867
sg13
S'with-sundials-dir'
p3868
sg8
I00
sbsS'with-memalign'
p3869
g3
(g23
g5
NtRp3870
(dp3871
g8
I00
sg9
S'16'
p3872
sg10
I00
sg11
S'Specify alignment of arrays allocated by PETSc'
p3873
sg13
S'with-memalign'
p3874
sbs.